Archive member included to satisfy reference by file (symbol)

/usr/lib/gcc/x86_64-linux-gnu/10/../../../x86_64-linux-gnu/libc.a(libc-start.o)
                              /usr/lib/gcc/x86_64-linux-gnu/10/../../../x86_64-linux-gnu/crt1.o (__libc_start_main)
/usr/lib/gcc/x86_64-linux-gnu/10/../../../x86_64-linux-gnu/libc.a(check_fds.o)
                              /usr/lib/gcc/x86_64-linux-gnu/10/../../../x86_64-linux-gnu/libc.a(libc-start.o) (__libc_check_standard_fds)
/usr/lib/gcc/x86_64-linux-gnu/10/../../../x86_64-linux-gnu/libc.a(libc-tls.o)
                              /usr/lib/gcc/x86_64-linux-gnu/10/../../../x86_64-linux-gnu/libc.a(libc-start.o) (__libc_setup_tls)
/usr/lib/gcc/x86_64-linux-gnu/10/../../../x86_64-linux-gnu/libc.a(elf-init.o)
                              /usr/lib/gcc/x86_64-linux-gnu/10/../../../x86_64-linux-gnu/crt1.o (__libc_csu_init)
/usr/lib/gcc/x86_64-linux-gnu/10/../../../x86_64-linux-gnu/libc.a(errno.o)
                              /usr/lib/gcc/x86_64-linux-gnu/10/../../../x86_64-linux-gnu/libc.a(check_fds.o) (__libc_errno)
/usr/lib/gcc/x86_64-linux-gnu/10/../../../x86_64-linux-gnu/libc.a(assert.o)
                              /usr/lib/gcc/x86_64-linux-gnu/10/../../../x86_64-linux-gnu/libc.a(libc-start.o) (__assert_fail)
/usr/lib/gcc/x86_64-linux-gnu/10/../../../x86_64-linux-gnu/libc.a(dcgettext.o)
                              /usr/lib/gcc/x86_64-linux-gnu/10/../../../x86_64-linux-gnu/libc.a(assert.o) (__dcgettext)
/usr/lib/gcc/x86_64-linux-gnu/10/../../../x86_64-linux-gnu/libc.a(dcigettext.o)
                              /usr/lib/gcc/x86_64-linux-gnu/10/../../../x86_64-linux-gnu/libc.a(dcgettext.o) (__dcigettext)
/usr/lib/gcc/x86_64-linux-gnu/10/../../../x86_64-linux-gnu/libc.a(finddomain.o)
                              /usr/lib/gcc/x86_64-linux-gnu/10/../../../x86_64-linux-gnu/libc.a(dcigettext.o) (_nl_find_domain)
/usr/lib/gcc/x86_64-linux-gnu/10/../../../x86_64-linux-gnu/libc.a(loadmsgcat.o)
                              /usr/lib/gcc/x86_64-linux-gnu/10/../../../x86_64-linux-gnu/libc.a(dcigettext.o) (_nl_load_domain)
/usr/lib/gcc/x86_64-linux-gnu/10/../../../x86_64-linux-gnu/libc.a(localealias.o)
                              /usr/lib/gcc/x86_64-linux-gnu/10/../../../x86_64-linux-gnu/libc.a(finddomain.o) (_nl_expand_alias)
/usr/lib/gcc/x86_64-linux-gnu/10/../../../x86_64-linux-gnu/libc.a(l10nflist.o)
                              /usr/lib/gcc/x86_64-linux-gnu/10/../../../x86_64-linux-gnu/libc.a(finddomain.o) (_nl_make_l10nflist)
/usr/lib/gcc/x86_64-linux-gnu/10/../../../x86_64-linux-gnu/libc.a(explodename.o)
                              /usr/lib/gcc/x86_64-linux-gnu/10/../../../x86_64-linux-gnu/libc.a(finddomain.o) (_nl_explode_name)
/usr/lib/gcc/x86_64-linux-gnu/10/../../../x86_64-linux-gnu/libc.a(plural.o)
                              /usr/lib/gcc/x86_64-linux-gnu/10/../../../x86_64-linux-gnu/libc.a(loadmsgcat.o) (__gettext_free_exp)
/usr/lib/gcc/x86_64-linux-gnu/10/../../../x86_64-linux-gnu/libc.a(plural-exp.o)
                              /usr/lib/gcc/x86_64-linux-gnu/10/../../../x86_64-linux-gnu/libc.a(loadmsgcat.o) (__gettext_extract_plural)
/usr/lib/gcc/x86_64-linux-gnu/10/../../../x86_64-linux-gnu/libc.a(hash-string.o)
                              /usr/lib/gcc/x86_64-linux-gnu/10/../../../x86_64-linux-gnu/libc.a(dcigettext.o) (__hash_string)
/usr/lib/gcc/x86_64-linux-gnu/10/../../../x86_64-linux-gnu/libc.a(bsd-_setjmp.o)
                              /usr/lib/gcc/x86_64-linux-gnu/10/../../../x86_64-linux-gnu/libc.a(libc-start.o) (_setjmp)
/usr/lib/gcc/x86_64-linux-gnu/10/../../../x86_64-linux-gnu/libc.a(raise.o)
                              /usr/lib/gcc/x86_64-linux-gnu/10/../../../x86_64-linux-gnu/libc.a(dcigettext.o) (raise)
/usr/lib/gcc/x86_64-linux-gnu/10/../../../x86_64-linux-gnu/libc.a(abort.o)
                              /usr/lib/gcc/x86_64-linux-gnu/10/../../../x86_64-linux-gnu/libc.a(assert.o) (abort)
/usr/lib/gcc/x86_64-linux-gnu/10/../../../x86_64-linux-gnu/libc.a(msort.o)
                              /usr/lib/gcc/x86_64-linux-gnu/10/../../../x86_64-linux-gnu/libc.a(localealias.o) (qsort)
/usr/lib/gcc/x86_64-linux-gnu/10/../../../x86_64-linux-gnu/libc.a(getenv.o)
                              /usr/lib/gcc/x86_64-linux-gnu/10/../../../x86_64-linux-gnu/libc.a(dcigettext.o) (getenv)
/usr/lib/gcc/x86_64-linux-gnu/10/../../../x86_64-linux-gnu/libc.a(exit.o)
                              /usr/lib/gcc/x86_64-linux-gnu/10/../../../x86_64-linux-gnu/libc.a(libc-start.o) (exit)
/usr/lib/gcc/x86_64-linux-gnu/10/../../../x86_64-linux-gnu/libc.a(cxa_atexit.o)
                              /usr/lib/gcc/x86_64-linux-gnu/10/../../../x86_64-linux-gnu/libc.a(exit.o) (__new_exitfn_called)
/usr/lib/gcc/x86_64-linux-gnu/10/../../../x86_64-linux-gnu/libc.a(strtoul.o)
                              /usr/lib/gcc/x86_64-linux-gnu/10/../../../x86_64-linux-gnu/libc.a(plural-exp.o) (strtoul)
/usr/lib/gcc/x86_64-linux-gnu/10/../../../x86_64-linux-gnu/libc.a(strtoul_l.o)
                              /usr/lib/gcc/x86_64-linux-gnu/10/../../../x86_64-linux-gnu/libc.a(strtoul.o) (____strtoul_l_internal)
/usr/lib/gcc/x86_64-linux-gnu/10/../../../x86_64-linux-gnu/libc.a(grouping.o)
                              /usr/lib/gcc/x86_64-linux-gnu/10/../../../x86_64-linux-gnu/libc.a(strtoul_l.o) (__correctly_grouped_prefixmb)
/usr/lib/gcc/x86_64-linux-gnu/10/../../../x86_64-linux-gnu/libc.a(fprintf.o)
                              ropex.o (fprintf)
/usr/lib/gcc/x86_64-linux-gnu/10/../../../x86_64-linux-gnu/libc.a(asprintf.o)
                              /usr/lib/gcc/x86_64-linux-gnu/10/../../../x86_64-linux-gnu/libc.a(assert.o) (__asprintf)
/usr/lib/gcc/x86_64-linux-gnu/10/../../../x86_64-linux-gnu/libc.a(vfprintf-internal.o)
                              /usr/lib/gcc/x86_64-linux-gnu/10/../../../x86_64-linux-gnu/libc.a(fprintf.o) (__vfprintf_internal)
/usr/lib/gcc/x86_64-linux-gnu/10/../../../x86_64-linux-gnu/libc.a(printf-parsemb.o)
                              /usr/lib/gcc/x86_64-linux-gnu/10/../../../x86_64-linux-gnu/libc.a(vfprintf-internal.o) (__parse_one_specmb)
/usr/lib/gcc/x86_64-linux-gnu/10/../../../x86_64-linux-gnu/libc.a(fxprintf.o)
                              /usr/lib/gcc/x86_64-linux-gnu/10/../../../x86_64-linux-gnu/libc.a(assert.o) (__fxprintf)
/usr/lib/gcc/x86_64-linux-gnu/10/../../../x86_64-linux-gnu/libc.a(iofclose.o)
                              /usr/lib/gcc/x86_64-linux-gnu/10/../../../x86_64-linux-gnu/libc.a(localealias.o) (_IO_new_fclose)
/usr/lib/gcc/x86_64-linux-gnu/10/../../../x86_64-linux-gnu/libc.a(iofflush.o)
                              /usr/lib/gcc/x86_64-linux-gnu/10/../../../x86_64-linux-gnu/libc.a(assert.o) (_IO_fflush)
/usr/lib/gcc/x86_64-linux-gnu/10/../../../x86_64-linux-gnu/libc.a(iofopen.o)
                              /usr/lib/gcc/x86_64-linux-gnu/10/../../../x86_64-linux-gnu/libc.a(localealias.o) (_IO_new_fopen)
/usr/lib/gcc/x86_64-linux-gnu/10/../../../x86_64-linux-gnu/libc.a(iopadn.o)
                              /usr/lib/gcc/x86_64-linux-gnu/10/../../../x86_64-linux-gnu/libc.a(vfprintf-internal.o) (_IO_padn)
/usr/lib/gcc/x86_64-linux-gnu/10/../../../x86_64-linux-gnu/libc.a(ioputs.o)
                              ropex.o (puts)
/usr/lib/gcc/x86_64-linux-gnu/10/../../../x86_64-linux-gnu/libc.a(wfileops.o)
                              /usr/lib/gcc/x86_64-linux-gnu/10/../../../x86_64-linux-gnu/libc.a(iofopen.o) (_IO_wfile_jumps_maybe_mmap)
/usr/lib/gcc/x86_64-linux-gnu/10/../../../x86_64-linux-gnu/libc.a(iofwide.o)
                              /usr/lib/gcc/x86_64-linux-gnu/10/../../../x86_64-linux-gnu/libc.a(wfileops.o) (__libio_codecvt_out)
/usr/lib/gcc/x86_64-linux-gnu/10/../../../x86_64-linux-gnu/libc.a(getc.o)
                              ropex.o (fgetc)
/usr/lib/gcc/x86_64-linux-gnu/10/../../../x86_64-linux-gnu/libc.a(vasprintf.o)
                              /usr/lib/gcc/x86_64-linux-gnu/10/../../../x86_64-linux-gnu/libc.a(asprintf.o) (__vasprintf_internal)
/usr/lib/gcc/x86_64-linux-gnu/10/../../../x86_64-linux-gnu/libc.a(libc_fatal.o)
                              /usr/lib/gcc/x86_64-linux-gnu/10/../../../x86_64-linux-gnu/libc.a(libc-start.o) (__libc_fatal)
/usr/lib/gcc/x86_64-linux-gnu/10/../../../x86_64-linux-gnu/libc.a(vtables.o)
                              /usr/lib/gcc/x86_64-linux-gnu/10/../../../x86_64-linux-gnu/libc.a(vfprintf-internal.o) (_IO_vtable_check)
/usr/lib/gcc/x86_64-linux-gnu/10/../../../x86_64-linux-gnu/libc.a(iofgets_u.o)
                              /usr/lib/gcc/x86_64-linux-gnu/10/../../../x86_64-linux-gnu/libc.a(localealias.o) (__fgets_unlocked)
/usr/lib/gcc/x86_64-linux-gnu/10/../../../x86_64-linux-gnu/libc.a(fileops.o)
                              /usr/lib/gcc/x86_64-linux-gnu/10/../../../x86_64-linux-gnu/libc.a(wfileops.o) (_IO_file_close)
/usr/lib/gcc/x86_64-linux-gnu/10/../../../x86_64-linux-gnu/libc.a(genops.o)
                              /usr/lib/gcc/x86_64-linux-gnu/10/../../../x86_64-linux-gnu/libc.a(iofclose.o) (_IO_un_link)
/usr/lib/gcc/x86_64-linux-gnu/10/../../../x86_64-linux-gnu/libc.a(stdfiles.o)
                              /usr/lib/gcc/x86_64-linux-gnu/10/../../../x86_64-linux-gnu/libc.a(genops.o) (_IO_list_all)
/usr/lib/gcc/x86_64-linux-gnu/10/../../../x86_64-linux-gnu/libc.a(stdio.o)
                              ropex.o (stderr)
/usr/lib/gcc/x86_64-linux-gnu/10/../../../x86_64-linux-gnu/libc.a(strops.o)
                              /usr/lib/gcc/x86_64-linux-gnu/10/../../../x86_64-linux-gnu/libc.a(vasprintf.o) (_IO_str_init_static_internal)
/usr/lib/gcc/x86_64-linux-gnu/10/../../../x86_64-linux-gnu/libc.a(alloca_cutoff.o)
                              /usr/lib/gcc/x86_64-linux-gnu/10/../../../x86_64-linux-gnu/libc.a(vfprintf-internal.o) (__libc_alloca_cutoff)
/usr/lib/gcc/x86_64-linux-gnu/10/../../../x86_64-linux-gnu/libc.a(libc-lowlevellock.o)
                              /usr/lib/gcc/x86_64-linux-gnu/10/../../../x86_64-linux-gnu/libc.a(dcigettext.o) (__lll_lock_wait_private)
/usr/lib/gcc/x86_64-linux-gnu/10/../../../x86_64-linux-gnu/libc.a(malloc.o)
                              /usr/lib/gcc/x86_64-linux-gnu/10/../../../x86_64-linux-gnu/libc.a(dcigettext.o) (malloc)
/usr/lib/gcc/x86_64-linux-gnu/10/../../../x86_64-linux-gnu/libc.a(morecore.o)
                              /usr/lib/gcc/x86_64-linux-gnu/10/../../../x86_64-linux-gnu/libc.a(malloc.o) (__default_morecore)
/usr/lib/gcc/x86_64-linux-gnu/10/../../../x86_64-linux-gnu/libc.a(scratch_buffer_grow_preserve.o)
                              /usr/lib/gcc/x86_64-linux-gnu/10/../../../x86_64-linux-gnu/libc.a(vfprintf-internal.o) (__libc_scratch_buffer_grow_preserve)
/usr/lib/gcc/x86_64-linux-gnu/10/../../../x86_64-linux-gnu/libc.a(scratch_buffer_set_array_size.o)
                              /usr/lib/gcc/x86_64-linux-gnu/10/../../../x86_64-linux-gnu/libc.a(vfprintf-internal.o) (__libc_scratch_buffer_set_array_size)
/usr/lib/gcc/x86_64-linux-gnu/10/../../../x86_64-linux-gnu/libc.a(strchr.o)
                              /usr/lib/gcc/x86_64-linux-gnu/10/../../../x86_64-linux-gnu/libc.a(dcigettext.o) (strchr)
/usr/lib/gcc/x86_64-linux-gnu/10/../../../x86_64-linux-gnu/libc.a(strcmp.o)
                              /usr/lib/gcc/x86_64-linux-gnu/10/../../../x86_64-linux-gnu/libc.a(dcigettext.o) (strcmp)
/usr/lib/gcc/x86_64-linux-gnu/10/../../../x86_64-linux-gnu/libc.a(strcpy.o)
                              /usr/lib/gcc/x86_64-linux-gnu/10/../../../x86_64-linux-gnu/libc.a(assert.o) (strcpy)
/usr/lib/gcc/x86_64-linux-gnu/10/../../../x86_64-linux-gnu/libc.a(strcspn.o)
                              /usr/lib/gcc/x86_64-linux-gnu/10/../../../x86_64-linux-gnu/libc.a(dcigettext.o) (strcspn)
/usr/lib/gcc/x86_64-linux-gnu/10/../../../x86_64-linux-gnu/libc.a(strdup.o)
                              /usr/lib/gcc/x86_64-linux-gnu/10/../../../x86_64-linux-gnu/libc.a(dcigettext.o) (__strdup)
/usr/lib/gcc/x86_64-linux-gnu/10/../../../x86_64-linux-gnu/libc.a(_strerror.o)
                              /usr/lib/gcc/x86_64-linux-gnu/10/../../../x86_64-linux-gnu/libc.a(vfprintf-internal.o) (__strerror_r)
/usr/lib/gcc/x86_64-linux-gnu/10/../../../x86_64-linux-gnu/libc.a(strlen.o)
                              /usr/lib/gcc/x86_64-linux-gnu/10/../../../x86_64-linux-gnu/libc.a(dcigettext.o) (strlen)
/usr/lib/gcc/x86_64-linux-gnu/10/../../../x86_64-linux-gnu/libc.a(strnlen.o)
                              /usr/lib/gcc/x86_64-linux-gnu/10/../../../x86_64-linux-gnu/libc.a(vfprintf-internal.o) (__strnlen)
/usr/lib/gcc/x86_64-linux-gnu/10/../../../x86_64-linux-gnu/libc.a(strncmp.o)
                              /usr/lib/gcc/x86_64-linux-gnu/10/../../../x86_64-linux-gnu/libc.a(getenv.o) (strncmp)
/usr/lib/gcc/x86_64-linux-gnu/10/../../../x86_64-linux-gnu/libc.a(strstr.o)
                              /usr/lib/gcc/x86_64-linux-gnu/10/../../../x86_64-linux-gnu/libc.a(dcigettext.o) (strstr)
/usr/lib/gcc/x86_64-linux-gnu/10/../../../x86_64-linux-gnu/libc.a(memcmp.o)
                              /usr/lib/gcc/x86_64-linux-gnu/10/../../../x86_64-linux-gnu/libc.a(strstr.o) (memcmp)
/usr/lib/gcc/x86_64-linux-gnu/10/../../../x86_64-linux-gnu/libc.a(memmove.o)
                              /usr/lib/gcc/x86_64-linux-gnu/10/../../../x86_64-linux-gnu/libc.a(vfprintf-internal.o) (memmove)
/usr/lib/gcc/x86_64-linux-gnu/10/../../../x86_64-linux-gnu/libc.a(memset.o)
                              /usr/lib/gcc/x86_64-linux-gnu/10/../../../x86_64-linux-gnu/libc.a(vfprintf-internal.o) (memset)
/usr/lib/gcc/x86_64-linux-gnu/10/../../../x86_64-linux-gnu/libc.a(mempcpy.o)
                              /usr/lib/gcc/x86_64-linux-gnu/10/../../../x86_64-linux-gnu/libc.a(dcigettext.o) (__mempcpy)
/usr/lib/gcc/x86_64-linux-gnu/10/../../../x86_64-linux-gnu/libc.a(stpcpy.o)
                              /usr/lib/gcc/x86_64-linux-gnu/10/../../../x86_64-linux-gnu/libc.a(dcigettext.o) (__stpcpy)
/usr/lib/gcc/x86_64-linux-gnu/10/../../../x86_64-linux-gnu/libc.a(strcasecmp_l.o)
                              /usr/lib/gcc/x86_64-linux-gnu/10/../../../x86_64-linux-gnu/libc.a(localealias.o) (__strcasecmp_l)
/usr/lib/gcc/x86_64-linux-gnu/10/../../../x86_64-linux-gnu/libc.a(memcpy.o)
                              /usr/lib/gcc/x86_64-linux-gnu/10/../../../x86_64-linux-gnu/libc.a(libc-tls.o) (memcpy)
/usr/lib/gcc/x86_64-linux-gnu/10/../../../x86_64-linux-gnu/libc.a(rawmemchr.o)
                              /usr/lib/gcc/x86_64-linux-gnu/10/../../../x86_64-linux-gnu/libc.a(dcigettext.o) (__rawmemchr)
/usr/lib/gcc/x86_64-linux-gnu/10/../../../x86_64-linux-gnu/libc.a(strchrnul.o)
                              /usr/lib/gcc/x86_64-linux-gnu/10/../../../x86_64-linux-gnu/libc.a(vfprintf-internal.o) (__strchrnul)
/usr/lib/gcc/x86_64-linux-gnu/10/../../../x86_64-linux-gnu/libc.a(strcmp-sse2.o)
                              /usr/lib/gcc/x86_64-linux-gnu/10/../../../x86_64-linux-gnu/libc.a(strcmp.o) (__strcmp_sse2)
/usr/lib/gcc/x86_64-linux-gnu/10/../../../x86_64-linux-gnu/libc.a(strcmp-sse2-unaligned.o)
                              /usr/lib/gcc/x86_64-linux-gnu/10/../../../x86_64-linux-gnu/libc.a(strcmp.o) (__strcmp_sse2_unaligned)
/usr/lib/gcc/x86_64-linux-gnu/10/../../../x86_64-linux-gnu/libc.a(strcmp-ssse3.o)
                              /usr/lib/gcc/x86_64-linux-gnu/10/../../../x86_64-linux-gnu/libc.a(strcmp.o) (__strcmp_ssse3)
/usr/lib/gcc/x86_64-linux-gnu/10/../../../x86_64-linux-gnu/libc.a(strcmp-avx2.o)
                              /usr/lib/gcc/x86_64-linux-gnu/10/../../../x86_64-linux-gnu/libc.a(strcmp.o) (__strcmp_avx2)
/usr/lib/gcc/x86_64-linux-gnu/10/../../../x86_64-linux-gnu/libc.a(strncmp-sse2.o)
                              /usr/lib/gcc/x86_64-linux-gnu/10/../../../x86_64-linux-gnu/libc.a(strncmp.o) (__strncmp_sse2)
/usr/lib/gcc/x86_64-linux-gnu/10/../../../x86_64-linux-gnu/libc.a(strncmp-ssse3.o)
                              /usr/lib/gcc/x86_64-linux-gnu/10/../../../x86_64-linux-gnu/libc.a(strncmp.o) (__strncmp_ssse3)
/usr/lib/gcc/x86_64-linux-gnu/10/../../../x86_64-linux-gnu/libc.a(strncmp-sse4_2.o)
                              /usr/lib/gcc/x86_64-linux-gnu/10/../../../x86_64-linux-gnu/libc.a(strncmp.o) (__strncmp_sse42)
/usr/lib/gcc/x86_64-linux-gnu/10/../../../x86_64-linux-gnu/libc.a(strncmp-avx2.o)
                              /usr/lib/gcc/x86_64-linux-gnu/10/../../../x86_64-linux-gnu/libc.a(strncmp.o) (__strncmp_avx2)
/usr/lib/gcc/x86_64-linux-gnu/10/../../../x86_64-linux-gnu/libc.a(rawmemchr-sse2.o)
                              /usr/lib/gcc/x86_64-linux-gnu/10/../../../x86_64-linux-gnu/libc.a(rawmemchr.o) (__rawmemchr_sse2)
/usr/lib/gcc/x86_64-linux-gnu/10/../../../x86_64-linux-gnu/libc.a(rawmemchr-avx2.o)
                              /usr/lib/gcc/x86_64-linux-gnu/10/../../../x86_64-linux-gnu/libc.a(rawmemchr.o) (__rawmemchr_avx2)
/usr/lib/gcc/x86_64-linux-gnu/10/../../../x86_64-linux-gnu/libc.a(memcmp-sse2.o)
                              /usr/lib/gcc/x86_64-linux-gnu/10/../../../x86_64-linux-gnu/libc.a(memcmp.o) (__memcmp_sse2)
/usr/lib/gcc/x86_64-linux-gnu/10/../../../x86_64-linux-gnu/libc.a(memcmp-avx2-movbe.o)
                              /usr/lib/gcc/x86_64-linux-gnu/10/../../../x86_64-linux-gnu/libc.a(memcmp.o) (__memcmp_avx2_movbe)
/usr/lib/gcc/x86_64-linux-gnu/10/../../../x86_64-linux-gnu/libc.a(memcmp-sse4.o)
                              /usr/lib/gcc/x86_64-linux-gnu/10/../../../x86_64-linux-gnu/libc.a(memcmp.o) (__memcmp_sse4_1)
/usr/lib/gcc/x86_64-linux-gnu/10/../../../x86_64-linux-gnu/libc.a(memcpy-ssse3.o)
                              /usr/lib/gcc/x86_64-linux-gnu/10/../../../x86_64-linux-gnu/libc.a(mempcpy.o) (__mempcpy_ssse3)
/usr/lib/gcc/x86_64-linux-gnu/10/../../../x86_64-linux-gnu/libc.a(memmove-ssse3.o)
                              /usr/lib/gcc/x86_64-linux-gnu/10/../../../x86_64-linux-gnu/libc.a(memmove.o) (__memmove_ssse3)
/usr/lib/gcc/x86_64-linux-gnu/10/../../../x86_64-linux-gnu/libc.a(memcpy-ssse3-back.o)
                              /usr/lib/gcc/x86_64-linux-gnu/10/../../../x86_64-linux-gnu/libc.a(mempcpy.o) (__mempcpy_ssse3_back)
/usr/lib/gcc/x86_64-linux-gnu/10/../../../x86_64-linux-gnu/libc.a(memmove-ssse3-back.o)
                              /usr/lib/gcc/x86_64-linux-gnu/10/../../../x86_64-linux-gnu/libc.a(memmove.o) (__memmove_ssse3_back)
/usr/lib/gcc/x86_64-linux-gnu/10/../../../x86_64-linux-gnu/libc.a(memmove-avx512-no-vzeroupper.o)
                              /usr/lib/gcc/x86_64-linux-gnu/10/../../../x86_64-linux-gnu/libc.a(mempcpy.o) (__mempcpy_avx512_no_vzeroupper)
/usr/lib/gcc/x86_64-linux-gnu/10/../../../x86_64-linux-gnu/libc.a(strcasecmp_l-sse2.o)
                              /usr/lib/gcc/x86_64-linux-gnu/10/../../../x86_64-linux-gnu/libc.a(strcasecmp_l.o) (__strcasecmp_l_sse2)
/usr/lib/gcc/x86_64-linux-gnu/10/../../../x86_64-linux-gnu/libc.a(strcasecmp_l-ssse3.o)
                              /usr/lib/gcc/x86_64-linux-gnu/10/../../../x86_64-linux-gnu/libc.a(strcasecmp_l.o) (__strcasecmp_l_ssse3)
/usr/lib/gcc/x86_64-linux-gnu/10/../../../x86_64-linux-gnu/libc.a(strcasecmp_l-sse4_2.o)
                              /usr/lib/gcc/x86_64-linux-gnu/10/../../../x86_64-linux-gnu/libc.a(strcasecmp_l.o) (__strcasecmp_l_sse42)
/usr/lib/gcc/x86_64-linux-gnu/10/../../../x86_64-linux-gnu/libc.a(strcasecmp_l-avx.o)
                              /usr/lib/gcc/x86_64-linux-gnu/10/../../../x86_64-linux-gnu/libc.a(strcasecmp_l.o) (__strcasecmp_l_avx)
/usr/lib/gcc/x86_64-linux-gnu/10/../../../x86_64-linux-gnu/libc.a(strchr-sse2.o)
                              /usr/lib/gcc/x86_64-linux-gnu/10/../../../x86_64-linux-gnu/libc.a(strchr.o) (__strchr_sse2)
/usr/lib/gcc/x86_64-linux-gnu/10/../../../x86_64-linux-gnu/libc.a(strchrnul-sse2.o)
                              /usr/lib/gcc/x86_64-linux-gnu/10/../../../x86_64-linux-gnu/libc.a(strchrnul.o) (__strchrnul_sse2)
/usr/lib/gcc/x86_64-linux-gnu/10/../../../x86_64-linux-gnu/libc.a(strchr-avx2.o)
                              /usr/lib/gcc/x86_64-linux-gnu/10/../../../x86_64-linux-gnu/libc.a(strchr.o) (__strchr_avx2)
/usr/lib/gcc/x86_64-linux-gnu/10/../../../x86_64-linux-gnu/libc.a(strchrnul-avx2.o)
                              /usr/lib/gcc/x86_64-linux-gnu/10/../../../x86_64-linux-gnu/libc.a(strchrnul.o) (__strchrnul_avx2)
/usr/lib/gcc/x86_64-linux-gnu/10/../../../x86_64-linux-gnu/libc.a(strlen-sse2.o)
                              /usr/lib/gcc/x86_64-linux-gnu/10/../../../x86_64-linux-gnu/libc.a(strlen.o) (__strlen_sse2)
/usr/lib/gcc/x86_64-linux-gnu/10/../../../x86_64-linux-gnu/libc.a(strnlen-sse2.o)
                              /usr/lib/gcc/x86_64-linux-gnu/10/../../../x86_64-linux-gnu/libc.a(strnlen.o) (__strnlen_sse2)
/usr/lib/gcc/x86_64-linux-gnu/10/../../../x86_64-linux-gnu/libc.a(strlen-avx2.o)
                              /usr/lib/gcc/x86_64-linux-gnu/10/../../../x86_64-linux-gnu/libc.a(strlen.o) (__strlen_avx2)
/usr/lib/gcc/x86_64-linux-gnu/10/../../../x86_64-linux-gnu/libc.a(strnlen-avx2.o)
                              /usr/lib/gcc/x86_64-linux-gnu/10/../../../x86_64-linux-gnu/libc.a(strnlen.o) (__strnlen_avx2)
/usr/lib/gcc/x86_64-linux-gnu/10/../../../x86_64-linux-gnu/libc.a(strcpy-avx2.o)
                              /usr/lib/gcc/x86_64-linux-gnu/10/../../../x86_64-linux-gnu/libc.a(strcpy.o) (__strcpy_avx2)
/usr/lib/gcc/x86_64-linux-gnu/10/../../../x86_64-linux-gnu/libc.a(strcpy-sse2.o)
                              /usr/lib/gcc/x86_64-linux-gnu/10/../../../x86_64-linux-gnu/libc.a(strcpy.o) (__strcpy_sse2)
/usr/lib/gcc/x86_64-linux-gnu/10/../../../x86_64-linux-gnu/libc.a(stpcpy-sse2.o)
                              /usr/lib/gcc/x86_64-linux-gnu/10/../../../x86_64-linux-gnu/libc.a(stpcpy.o) (__stpcpy_sse2)
/usr/lib/gcc/x86_64-linux-gnu/10/../../../x86_64-linux-gnu/libc.a(strcpy-ssse3.o)
                              /usr/lib/gcc/x86_64-linux-gnu/10/../../../x86_64-linux-gnu/libc.a(strcpy.o) (__strcpy_ssse3)
/usr/lib/gcc/x86_64-linux-gnu/10/../../../x86_64-linux-gnu/libc.a(stpcpy-ssse3.o)
                              /usr/lib/gcc/x86_64-linux-gnu/10/../../../x86_64-linux-gnu/libc.a(stpcpy.o) (__stpcpy_ssse3)
/usr/lib/gcc/x86_64-linux-gnu/10/../../../x86_64-linux-gnu/libc.a(strcpy-sse2-unaligned.o)
                              /usr/lib/gcc/x86_64-linux-gnu/10/../../../x86_64-linux-gnu/libc.a(strcpy.o) (__strcpy_sse2_unaligned)
/usr/lib/gcc/x86_64-linux-gnu/10/../../../x86_64-linux-gnu/libc.a(stpcpy-sse2-unaligned.o)
                              /usr/lib/gcc/x86_64-linux-gnu/10/../../../x86_64-linux-gnu/libc.a(stpcpy.o) (__stpcpy_sse2_unaligned)
/usr/lib/gcc/x86_64-linux-gnu/10/../../../x86_64-linux-gnu/libc.a(stpcpy-avx2.o)
                              /usr/lib/gcc/x86_64-linux-gnu/10/../../../x86_64-linux-gnu/libc.a(stpcpy.o) (__stpcpy_avx2)
/usr/lib/gcc/x86_64-linux-gnu/10/../../../x86_64-linux-gnu/libc.a(strchr-sse2-no-bsf.o)
                              /usr/lib/gcc/x86_64-linux-gnu/10/../../../x86_64-linux-gnu/libc.a(strchr.o) (__strchr_sse2_no_bsf)
/usr/lib/gcc/x86_64-linux-gnu/10/../../../x86_64-linux-gnu/libc.a(memcmp-ssse3.o)
                              /usr/lib/gcc/x86_64-linux-gnu/10/../../../x86_64-linux-gnu/libc.a(memcmp.o) (__memcmp_ssse3)
/usr/lib/gcc/x86_64-linux-gnu/10/../../../x86_64-linux-gnu/libc.a(strstr-sse2-unaligned.o)
                              /usr/lib/gcc/x86_64-linux-gnu/10/../../../x86_64-linux-gnu/libc.a(strstr.o) (__strstr_sse2_unaligned)
/usr/lib/gcc/x86_64-linux-gnu/10/../../../x86_64-linux-gnu/libc.a(strcspn-sse2.o)
                              /usr/lib/gcc/x86_64-linux-gnu/10/../../../x86_64-linux-gnu/libc.a(strcspn.o) (__strcspn_sse2)
/usr/lib/gcc/x86_64-linux-gnu/10/../../../x86_64-linux-gnu/libc.a(strcspn-c.o)
                              /usr/lib/gcc/x86_64-linux-gnu/10/../../../x86_64-linux-gnu/libc.a(strcspn.o) (__strcspn_sse42)
/usr/lib/gcc/x86_64-linux-gnu/10/../../../x86_64-linux-gnu/libc.a(varshift.o)
                              /usr/lib/gcc/x86_64-linux-gnu/10/../../../x86_64-linux-gnu/libc.a(strcspn-c.o) (___m128i_shift_right)
/usr/lib/gcc/x86_64-linux-gnu/10/../../../x86_64-linux-gnu/libc.a(memset-avx512-no-vzeroupper.o)
                              /usr/lib/gcc/x86_64-linux-gnu/10/../../../x86_64-linux-gnu/libc.a(memset.o) (__memset_avx512_no_vzeroupper)
/usr/lib/gcc/x86_64-linux-gnu/10/../../../x86_64-linux-gnu/libc.a(memmove-sse2-unaligned-erms.o)
                              /usr/lib/gcc/x86_64-linux-gnu/10/../../../x86_64-linux-gnu/libc.a(mempcpy.o) (__mempcpy_sse2_unaligned)
/usr/lib/gcc/x86_64-linux-gnu/10/../../../x86_64-linux-gnu/libc.a(memmove-avx-unaligned-erms.o)
                              /usr/lib/gcc/x86_64-linux-gnu/10/../../../x86_64-linux-gnu/libc.a(mempcpy.o) (__mempcpy_avx_unaligned)
/usr/lib/gcc/x86_64-linux-gnu/10/../../../x86_64-linux-gnu/libc.a(memmove-avx512-unaligned-erms.o)
                              /usr/lib/gcc/x86_64-linux-gnu/10/../../../x86_64-linux-gnu/libc.a(mempcpy.o) (__mempcpy_avx512_unaligned)
/usr/lib/gcc/x86_64-linux-gnu/10/../../../x86_64-linux-gnu/libc.a(memset-sse2-unaligned-erms.o)
                              /usr/lib/gcc/x86_64-linux-gnu/10/../../../x86_64-linux-gnu/libc.a(memset.o) (__memset_sse2_unaligned)
/usr/lib/gcc/x86_64-linux-gnu/10/../../../x86_64-linux-gnu/libc.a(memset-avx2-unaligned-erms.o)
                              /usr/lib/gcc/x86_64-linux-gnu/10/../../../x86_64-linux-gnu/libc.a(memset.o) (__memset_avx2_unaligned)
/usr/lib/gcc/x86_64-linux-gnu/10/../../../x86_64-linux-gnu/libc.a(memset-avx512-unaligned-erms.o)
                              /usr/lib/gcc/x86_64-linux-gnu/10/../../../x86_64-linux-gnu/libc.a(memset.o) (__memset_avx512_unaligned)
/usr/lib/gcc/x86_64-linux-gnu/10/../../../x86_64-linux-gnu/libc.a(cacheinfo.o)
                              /usr/lib/gcc/x86_64-linux-gnu/10/../../../x86_64-linux-gnu/libc.a(memcpy-ssse3-back.o) (__x86_data_cache_size)
/usr/lib/gcc/x86_64-linux-gnu/10/../../../x86_64-linux-gnu/libc.a(strcasecmp_l-nonascii.o)
                              /usr/lib/gcc/x86_64-linux-gnu/10/../../../x86_64-linux-gnu/libc.a(strcasecmp_l-sse2.o) (__strcasecmp_l_nonascii)
/usr/lib/gcc/x86_64-linux-gnu/10/../../../x86_64-linux-gnu/libc.a(wmempcpy.o)
                              /usr/lib/gcc/x86_64-linux-gnu/10/../../../x86_64-linux-gnu/libc.a(wfileops.o) (__wmempcpy)
/usr/lib/gcc/x86_64-linux-gnu/10/../../../x86_64-linux-gnu/libc.a(wcrtomb.o)
                              /usr/lib/gcc/x86_64-linux-gnu/10/../../../x86_64-linux-gnu/libc.a(vfprintf-internal.o) (__wcrtomb)
/usr/lib/gcc/x86_64-linux-gnu/10/../../../x86_64-linux-gnu/libc.a(mbsrtowcs.o)
                              /usr/lib/gcc/x86_64-linux-gnu/10/../../../x86_64-linux-gnu/libc.a(fxprintf.o) (__mbsrtowcs)
/usr/lib/gcc/x86_64-linux-gnu/10/../../../x86_64-linux-gnu/libc.a(wcsrtombs.o)
                              /usr/lib/gcc/x86_64-linux-gnu/10/../../../x86_64-linux-gnu/libc.a(vfprintf-internal.o) (__wcsrtombs)
/usr/lib/gcc/x86_64-linux-gnu/10/../../../x86_64-linux-gnu/libc.a(wcsnlen.o)
                              /usr/lib/gcc/x86_64-linux-gnu/10/../../../x86_64-linux-gnu/libc.a(wcsrtombs.o) (__wcsnlen)
/usr/lib/gcc/x86_64-linux-gnu/10/../../../x86_64-linux-gnu/libc.a(wcsmbsload.o)
                              /usr/lib/gcc/x86_64-linux-gnu/10/../../../x86_64-linux-gnu/libc.a(wcrtomb.o) (__wcsmbs_load_conv)
/usr/lib/gcc/x86_64-linux-gnu/10/../../../x86_64-linux-gnu/libc.a(mbsrtowcs_l.o)
                              /usr/lib/gcc/x86_64-linux-gnu/10/../../../x86_64-linux-gnu/libc.a(mbsrtowcs.o) (__mbsrtowcs_l)
/usr/lib/gcc/x86_64-linux-gnu/10/../../../x86_64-linux-gnu/libc.a(wcsnlen-sse4_1.o)
                              /usr/lib/gcc/x86_64-linux-gnu/10/../../../x86_64-linux-gnu/libc.a(wcsnlen.o) (__wcsnlen_sse4_1)
/usr/lib/gcc/x86_64-linux-gnu/10/../../../x86_64-linux-gnu/libc.a(wcsnlen-c.o)
                              /usr/lib/gcc/x86_64-linux-gnu/10/../../../x86_64-linux-gnu/libc.a(wcsnlen.o) (__wcsnlen_sse2)
/usr/lib/gcc/x86_64-linux-gnu/10/../../../x86_64-linux-gnu/libc.a(wcsnlen-avx2.o)
                              /usr/lib/gcc/x86_64-linux-gnu/10/../../../x86_64-linux-gnu/libc.a(wcsnlen.o) (__wcsnlen_avx2)
/usr/lib/gcc/x86_64-linux-gnu/10/../../../x86_64-linux-gnu/libc.a(_exit.o)
                              /usr/lib/gcc/x86_64-linux-gnu/10/../../../x86_64-linux-gnu/libc.a(abort.o) (_exit)
/usr/lib/gcc/x86_64-linux-gnu/10/../../../x86_64-linux-gnu/libc.a(sysconf.o)
                              /usr/lib/gcc/x86_64-linux-gnu/10/../../../x86_64-linux-gnu/libc.a(msort.o) (__sysconf)
/usr/lib/gcc/x86_64-linux-gnu/10/../../../x86_64-linux-gnu/libc.a(sched_yield.o)
                              /usr/lib/gcc/x86_64-linux-gnu/10/../../../x86_64-linux-gnu/libc.a(genops.o) (__sched_yield)
/usr/lib/gcc/x86_64-linux-gnu/10/../../../x86_64-linux-gnu/libc.a(get_child_max.o)
                              /usr/lib/gcc/x86_64-linux-gnu/10/../../../x86_64-linux-gnu/libc.a(sysconf.o) (__get_child_max)
/usr/lib/gcc/x86_64-linux-gnu/10/../../../x86_64-linux-gnu/libc.a(environ.o)
                              /usr/lib/gcc/x86_64-linux-gnu/10/../../../x86_64-linux-gnu/libc.a(libc-start.o) (__environ)
/usr/lib/gcc/x86_64-linux-gnu/10/../../../x86_64-linux-gnu/libc.a(xstat.o)
                              /usr/lib/gcc/x86_64-linux-gnu/10/../../../x86_64-linux-gnu/libc.a(sysconf.o) (__xstat64)
/usr/lib/gcc/x86_64-linux-gnu/10/../../../x86_64-linux-gnu/libc.a(fxstat.o)
                              /usr/lib/gcc/x86_64-linux-gnu/10/../../../x86_64-linux-gnu/libc.a(check_fds.o) (__fxstat64)
/usr/lib/gcc/x86_64-linux-gnu/10/../../../x86_64-linux-gnu/libc.a(open64.o)
                              /usr/lib/gcc/x86_64-linux-gnu/10/../../../x86_64-linux-gnu/libc.a(fileops.o) (__open)
/usr/lib/gcc/x86_64-linux-gnu/10/../../../x86_64-linux-gnu/libc.a(read.o)
                              /usr/lib/gcc/x86_64-linux-gnu/10/../../../x86_64-linux-gnu/libc.a(fileops.o) (__read)
/usr/lib/gcc/x86_64-linux-gnu/10/../../../x86_64-linux-gnu/libc.a(write.o)
                              /usr/lib/gcc/x86_64-linux-gnu/10/../../../x86_64-linux-gnu/libc.a(assert.o) (__libc_write)
/usr/lib/gcc/x86_64-linux-gnu/10/../../../x86_64-linux-gnu/libc.a(lseek64.o)
                              /usr/lib/gcc/x86_64-linux-gnu/10/../../../x86_64-linux-gnu/libc.a(fileops.o) (__lseek64)
/usr/lib/gcc/x86_64-linux-gnu/10/../../../x86_64-linux-gnu/libc.a(getcwd.o)
                              /usr/lib/gcc/x86_64-linux-gnu/10/../../../x86_64-linux-gnu/libc.a(dcigettext.o) (__getcwd)
/usr/lib/gcc/x86_64-linux-gnu/10/../../../x86_64-linux-gnu/libc.a(close_nocancel.o)
                              /usr/lib/gcc/x86_64-linux-gnu/10/../../../x86_64-linux-gnu/libc.a(loadmsgcat.o) (__close_nocancel)
/usr/lib/gcc/x86_64-linux-gnu/10/../../../x86_64-linux-gnu/libc.a(fcntl_nocancel.o)
                              /usr/lib/gcc/x86_64-linux-gnu/10/../../../x86_64-linux-gnu/libc.a(check_fds.o) (__fcntl64_nocancel)
/usr/lib/gcc/x86_64-linux-gnu/10/../../../x86_64-linux-gnu/libc.a(open64_nocancel.o)
                              /usr/lib/gcc/x86_64-linux-gnu/10/../../../x86_64-linux-gnu/libc.a(check_fds.o) (__open_nocancel)
/usr/lib/gcc/x86_64-linux-gnu/10/../../../x86_64-linux-gnu/libc.a(openat64_nocancel.o)
                              /usr/lib/gcc/x86_64-linux-gnu/10/../../../x86_64-linux-gnu/libc.a(getcwd.o) (__openat64_nocancel)
/usr/lib/gcc/x86_64-linux-gnu/10/../../../x86_64-linux-gnu/libc.a(read_nocancel.o)
                              /usr/lib/gcc/x86_64-linux-gnu/10/../../../x86_64-linux-gnu/libc.a(loadmsgcat.o) (__read_nocancel)
/usr/lib/gcc/x86_64-linux-gnu/10/../../../x86_64-linux-gnu/libc.a(write_nocancel.o)
                              /usr/lib/gcc/x86_64-linux-gnu/10/../../../x86_64-linux-gnu/libc.a(fileops.o) (__write_nocancel)
/usr/lib/gcc/x86_64-linux-gnu/10/../../../x86_64-linux-gnu/libc.a(getrlimit64.o)
                              /usr/lib/gcc/x86_64-linux-gnu/10/../../../x86_64-linux-gnu/libc.a(sysconf.o) (__getrlimit)
/usr/lib/gcc/x86_64-linux-gnu/10/../../../x86_64-linux-gnu/libc.a(sbrk.o)
                              /usr/lib/gcc/x86_64-linux-gnu/10/../../../x86_64-linux-gnu/libc.a(libc-tls.o) (__sbrk)
/usr/lib/gcc/x86_64-linux-gnu/10/../../../x86_64-linux-gnu/libc.a(getpagesize.o)
                              /usr/lib/gcc/x86_64-linux-gnu/10/../../../x86_64-linux-gnu/libc.a(fileops.o) (__getpagesize)
/usr/lib/gcc/x86_64-linux-gnu/10/../../../x86_64-linux-gnu/libc.a(getdtsz.o)
                              /usr/lib/gcc/x86_64-linux-gnu/10/../../../x86_64-linux-gnu/libc.a(sysconf.o) (__getdtablesize)
/usr/lib/gcc/x86_64-linux-gnu/10/../../../x86_64-linux-gnu/libc.a(mmap64.o)
                              /usr/lib/gcc/x86_64-linux-gnu/10/../../../x86_64-linux-gnu/libc.a(fileops.o) (__mmap64)
/usr/lib/gcc/x86_64-linux-gnu/10/../../../x86_64-linux-gnu/libc.a(munmap.o)
                              /usr/lib/gcc/x86_64-linux-gnu/10/../../../x86_64-linux-gnu/libc.a(assert.o) (__munmap)
/usr/lib/gcc/x86_64-linux-gnu/10/../../../x86_64-linux-gnu/libc.a(mprotect.o)
                              /usr/lib/gcc/x86_64-linux-gnu/10/../../../x86_64-linux-gnu/libc.a(malloc.o) (__mprotect)
/usr/lib/gcc/x86_64-linux-gnu/10/../../../x86_64-linux-gnu/libc.a(madvise.o)
                              /usr/lib/gcc/x86_64-linux-gnu/10/../../../x86_64-linux-gnu/libc.a(malloc.o) (__madvise)
/usr/lib/gcc/x86_64-linux-gnu/10/../../../x86_64-linux-gnu/libc.a(tsearch.o)
                              /usr/lib/gcc/x86_64-linux-gnu/10/../../../x86_64-linux-gnu/libc.a(dcigettext.o) (__tsearch)
/usr/lib/gcc/x86_64-linux-gnu/10/../../../x86_64-linux-gnu/libc.a(getsysstats.o)
                              /usr/lib/gcc/x86_64-linux-gnu/10/../../../x86_64-linux-gnu/libc.a(malloc.o) (__get_nprocs)
/usr/lib/gcc/x86_64-linux-gnu/10/../../../x86_64-linux-gnu/libc.a(getclktck.o)
                              /usr/lib/gcc/x86_64-linux-gnu/10/../../../x86_64-linux-gnu/libc.a(sysconf.o) (__getclktck)
/usr/lib/gcc/x86_64-linux-gnu/10/../../../x86_64-linux-gnu/libc.a(init-misc.o)
                              /usr/lib/gcc/x86_64-linux-gnu/10/../../../x86_64-linux-gnu/libc.a(assert.o) (__progname)
/usr/lib/gcc/x86_64-linux-gnu/10/../../../x86_64-linux-gnu/libc.a(mremap.o)
                              /usr/lib/gcc/x86_64-linux-gnu/10/../../../x86_64-linux-gnu/libc.a(fileops.o) (__mremap)
/usr/lib/gcc/x86_64-linux-gnu/10/../../../x86_64-linux-gnu/libc.a(sysinfo.o)
                              /usr/lib/gcc/x86_64-linux-gnu/10/../../../x86_64-linux-gnu/libc.a(getsysstats.o) (__sysinfo)
/usr/lib/gcc/x86_64-linux-gnu/10/../../../x86_64-linux-gnu/libc.a(wctrans.o)
                              /usr/lib/gcc/x86_64-linux-gnu/10/../../../x86_64-linux-gnu/libc.a(vfprintf-internal.o) (__wctrans)
/usr/lib/gcc/x86_64-linux-gnu/10/../../../x86_64-linux-gnu/libc.a(towctrans.o)
                              /usr/lib/gcc/x86_64-linux-gnu/10/../../../x86_64-linux-gnu/libc.a(vfprintf-internal.o) (__towctrans)
/usr/lib/gcc/x86_64-linux-gnu/10/../../../x86_64-linux-gnu/libc.a(chk_fail.o)
                              /usr/lib/gcc/x86_64-linux-gnu/10/../../../x86_64-linux-gnu/libc.a(memcpy-ssse3.o) (__chk_fail)
/usr/lib/gcc/x86_64-linux-gnu/10/../../../x86_64-linux-gnu/libc.a(readonly-area.o)
                              /usr/lib/gcc/x86_64-linux-gnu/10/../../../x86_64-linux-gnu/libc.a(vfprintf-internal.o) (__readonly_area)
/usr/lib/gcc/x86_64-linux-gnu/10/../../../x86_64-linux-gnu/libc.a(stack_chk_fail.o)
                              /usr/lib/gcc/x86_64-linux-gnu/10/../../../x86_64-linux-gnu/libc.a(dcigettext.o) (__stack_chk_fail)
/usr/lib/gcc/x86_64-linux-gnu/10/../../../x86_64-linux-gnu/libc.a(fortify_fail.o)
                              /usr/lib/gcc/x86_64-linux-gnu/10/../../../x86_64-linux-gnu/libc.a(chk_fail.o) (__fortify_fail)
/usr/lib/gcc/x86_64-linux-gnu/10/../../../x86_64-linux-gnu/libc.a(dl-debug.o)
                              /usr/lib/gcc/x86_64-linux-gnu/10/../../../x86_64-linux-gnu/libc.a(libc-start.o) (_dl_debug_initialize)
/usr/lib/gcc/x86_64-linux-gnu/10/../../../x86_64-linux-gnu/libc.a(dl-tls.o)
                              /usr/lib/gcc/x86_64-linux-gnu/10/../../../x86_64-linux-gnu/libc.a(libc-tls.o) (_dl_tls_static_surplus_init)
/usr/lib/gcc/x86_64-linux-gnu/10/../../../x86_64-linux-gnu/libc.a(dl-tunables.o)
                              /usr/lib/gcc/x86_64-linux-gnu/10/../../../x86_64-linux-gnu/libc.a(libc-start.o) (__tunables_init)
/usr/lib/gcc/x86_64-linux-gnu/10/../../../x86_64-linux-gnu/libc.a(dl-support.o)
                              /usr/lib/gcc/x86_64-linux-gnu/10/../../../x86_64-linux-gnu/libc.a(libc-start.o) (_dl_aux_init)
/usr/lib/gcc/x86_64-linux-gnu/10/../../../x86_64-linux-gnu/libc.a(enbl-secure.o)
                              /usr/lib/gcc/x86_64-linux-gnu/10/../../../x86_64-linux-gnu/libc.a(libc-start.o) (__libc_init_secure)
/usr/lib/gcc/x86_64-linux-gnu/10/../../../x86_64-linux-gnu/libc.a(dl-profstub.o)
                              /usr/lib/gcc/x86_64-linux-gnu/10/../../../x86_64-linux-gnu/libc.a(iofwide.o) (_dl_mcount_wrapper_check)
/usr/lib/gcc/x86_64-linux-gnu/10/../../../x86_64-linux-gnu/libc.a(dl-sysdep.o)
                              /usr/lib/gcc/x86_64-linux-gnu/10/../../../x86_64-linux-gnu/libc.a(libc-start.o) (_dl_tunable_set_hwcaps)
/usr/lib/gcc/x86_64-linux-gnu/10/../../../x86_64-linux-gnu/libc.a(dl-error.o)
                              /usr/lib/gcc/x86_64-linux-gnu/10/../../../x86_64-linux-gnu/libc.a(dl-tls.o) (_dl_signal_error)
/usr/lib/gcc/x86_64-linux-gnu/10/../../../x86_64-linux-gnu/libc.a(init-first.o)
                              /usr/lib/gcc/x86_64-linux-gnu/10/../../../x86_64-linux-gnu/libc.a(libc-start.o) (__libc_init_first)
/usr/lib/gcc/x86_64-linux-gnu/10/../../../x86_64-linux-gnu/libc.a(gconv_open.o)
                              /usr/lib/gcc/x86_64-linux-gnu/10/../../../x86_64-linux-gnu/libc.a(dcigettext.o) (__gconv_open)
/usr/lib/gcc/x86_64-linux-gnu/10/../../../x86_64-linux-gnu/libc.a(gconv.o)
                              /usr/lib/gcc/x86_64-linux-gnu/10/../../../x86_64-linux-gnu/libc.a(dcigettext.o) (__gconv)
/usr/lib/gcc/x86_64-linux-gnu/10/../../../x86_64-linux-gnu/libc.a(gconv_close.o)
                              /usr/lib/gcc/x86_64-linux-gnu/10/../../../x86_64-linux-gnu/libc.a(loadmsgcat.o) (__gconv_close)
/usr/lib/gcc/x86_64-linux-gnu/10/../../../x86_64-linux-gnu/libc.a(gconv_db.o)
                              /usr/lib/gcc/x86_64-linux-gnu/10/../../../x86_64-linux-gnu/libc.a(iofclose.o) (__gconv_release_step)
/usr/lib/gcc/x86_64-linux-gnu/10/../../../x86_64-linux-gnu/libc.a(gconv_conf.o)
                              /usr/lib/gcc/x86_64-linux-gnu/10/../../../x86_64-linux-gnu/libc.a(gconv_db.o) (__gconv_load_conf)
/usr/lib/gcc/x86_64-linux-gnu/10/../../../x86_64-linux-gnu/libc.a(gconv_builtin.o)
                              /usr/lib/gcc/x86_64-linux-gnu/10/../../../x86_64-linux-gnu/libc.a(gconv_db.o) (__gconv_get_builtin_trans)
/usr/lib/gcc/x86_64-linux-gnu/10/../../../x86_64-linux-gnu/libc.a(gconv_simple.o)
                              /usr/lib/gcc/x86_64-linux-gnu/10/../../../x86_64-linux-gnu/libc.a(wcsmbsload.o) (__gconv_btwoc_ascii)
/usr/lib/gcc/x86_64-linux-gnu/10/../../../x86_64-linux-gnu/libc.a(gconv_trans.o)
                              /usr/lib/gcc/x86_64-linux-gnu/10/../../../x86_64-linux-gnu/libc.a(gconv_simple.o) (__gconv_transliterate)
/usr/lib/gcc/x86_64-linux-gnu/10/../../../x86_64-linux-gnu/libc.a(gconv_cache.o)
                              /usr/lib/gcc/x86_64-linux-gnu/10/../../../x86_64-linux-gnu/libc.a(gconv_conf.o) (__gconv_load_cache)
/usr/lib/gcc/x86_64-linux-gnu/10/../../../x86_64-linux-gnu/libc.a(gconv_dl.o)
                              /usr/lib/gcc/x86_64-linux-gnu/10/../../../x86_64-linux-gnu/libc.a(gconv_db.o) (__gconv_find_shlib)
/usr/lib/gcc/x86_64-linux-gnu/10/../../../x86_64-linux-gnu/libc.a(gconv_charset.o)
                              /usr/lib/gcc/x86_64-linux-gnu/10/../../../x86_64-linux-gnu/libc.a(dcigettext.o) (__gconv_create_spec)
/usr/lib/gcc/x86_64-linux-gnu/10/../../../x86_64-linux-gnu/libc.a(setlocale.o)
                              /usr/lib/gcc/x86_64-linux-gnu/10/../../../x86_64-linux-gnu/libc.a(dcigettext.o) (_nl_category_name_idxs)
/usr/lib/gcc/x86_64-linux-gnu/10/../../../x86_64-linux-gnu/libc.a(findlocale.o)
                              /usr/lib/gcc/x86_64-linux-gnu/10/../../../x86_64-linux-gnu/libc.a(setlocale.o) (_nl_find_locale)
/usr/lib/gcc/x86_64-linux-gnu/10/../../../x86_64-linux-gnu/libc.a(loadlocale.o)
                              /usr/lib/gcc/x86_64-linux-gnu/10/../../../x86_64-linux-gnu/libc.a(findlocale.o) (_nl_load_locale)
/usr/lib/gcc/x86_64-linux-gnu/10/../../../x86_64-linux-gnu/libc.a(loadarchive.o)
                              /usr/lib/gcc/x86_64-linux-gnu/10/../../../x86_64-linux-gnu/libc.a(findlocale.o) (_nl_load_locale_from_archive)
/usr/lib/gcc/x86_64-linux-gnu/10/../../../x86_64-linux-gnu/libc.a(lc-ctype.o)
                              /usr/lib/gcc/x86_64-linux-gnu/10/../../../x86_64-linux-gnu/libc.a(dcigettext.o) (_nl_current_LC_CTYPE)
/usr/lib/gcc/x86_64-linux-gnu/10/../../../x86_64-linux-gnu/libc.a(lc-numeric.o)
                              /usr/lib/gcc/x86_64-linux-gnu/10/../../../x86_64-linux-gnu/libc.a(vfprintf-internal.o) (_nl_current_LC_NUMERIC)
/usr/lib/gcc/x86_64-linux-gnu/10/../../../x86_64-linux-gnu/libc.a(C-ctype.o)
                              /usr/lib/gcc/x86_64-linux-gnu/10/../../../x86_64-linux-gnu/libc.a(wcrtomb.o) (_nl_C_LC_CTYPE)
/usr/lib/gcc/x86_64-linux-gnu/10/../../../x86_64-linux-gnu/libc.a(SYS_libc.o)
                              /usr/lib/gcc/x86_64-linux-gnu/10/../../../x86_64-linux-gnu/libc.a(assert.o) (_libc_intl_domainname)
/usr/lib/gcc/x86_64-linux-gnu/10/../../../x86_64-linux-gnu/libc.a(C_name.o)
                              /usr/lib/gcc/x86_64-linux-gnu/10/../../../x86_64-linux-gnu/libc.a(C-ctype.o) (_nl_C_codeset)
/usr/lib/gcc/x86_64-linux-gnu/10/../../../x86_64-linux-gnu/libc.a(xlocale.o)
                              /usr/lib/gcc/x86_64-linux-gnu/10/../../../x86_64-linux-gnu/libc.a(localealias.o) (_nl_C_locobj)
/usr/lib/gcc/x86_64-linux-gnu/10/../../../x86_64-linux-gnu/libc.a(localename.o)
                              /usr/lib/gcc/x86_64-linux-gnu/10/../../../x86_64-linux-gnu/libc.a(dcigettext.o) (__current_locale_name)
/usr/lib/gcc/x86_64-linux-gnu/10/../../../x86_64-linux-gnu/libc.a(global-locale.o)
                              /usr/lib/gcc/x86_64-linux-gnu/10/../../../x86_64-linux-gnu/libc.a(setlocale.o) (_nl_global_locale)
/usr/lib/gcc/x86_64-linux-gnu/10/../../../x86_64-linux-gnu/libc.a(ctype-info.o)
                              /usr/lib/gcc/x86_64-linux-gnu/10/../../../x86_64-linux-gnu/libc.a(localealias.o) (__libc_tsd_CTYPE_B)
/usr/lib/gcc/x86_64-linux-gnu/10/../../../x86_64-linux-gnu/libc.a(setfpucw.o)
                              /usr/lib/gcc/x86_64-linux-gnu/10/../../../x86_64-linux-gnu/libc.a(init-first.o) (__setfpucw)
/usr/lib/gcc/x86_64-linux-gnu/10/../../../x86_64-linux-gnu/libc.a(fpu_control.o)
                              /usr/lib/gcc/x86_64-linux-gnu/10/../../../x86_64-linux-gnu/libc.a(init-first.o) (__fpu_control)
/usr/lib/gcc/x86_64-linux-gnu/10/../../../x86_64-linux-gnu/libc.a(setjmp.o)
                              /usr/lib/gcc/x86_64-linux-gnu/10/../../../x86_64-linux-gnu/libc.a(bsd-_setjmp.o) (__sigsetjmp)
/usr/lib/gcc/x86_64-linux-gnu/10/../../../x86_64-linux-gnu/libc.a(sigjmp.o)
                              /usr/lib/gcc/x86_64-linux-gnu/10/../../../x86_64-linux-gnu/libc.a(setjmp.o) (__sigjmp_save)
/usr/lib/gcc/x86_64-linux-gnu/10/../../../x86_64-linux-gnu/libc.a(__longjmp.o)
                              /usr/lib/gcc/x86_64-linux-gnu/10/../../../x86_64-linux-gnu/libc.a(dl-error.o) (__longjmp)
/usr/lib/gcc/x86_64-linux-gnu/10/../../../x86_64-linux-gnu/libc.a(sigaction.o)
                              /usr/lib/gcc/x86_64-linux-gnu/10/../../../x86_64-linux-gnu/libc.a(abort.o) (__sigaction)
/usr/lib/gcc/x86_64-linux-gnu/10/../../../x86_64-linux-gnu/libc.a(sigprocmask.o)
                              /usr/lib/gcc/x86_64-linux-gnu/10/../../../x86_64-linux-gnu/libc.a(abort.o) (__sigprocmask)
/usr/lib/gcc/x86_64-linux-gnu/10/../../../x86_64-linux-gnu/libc.a(qsort.o)
                              /usr/lib/gcc/x86_64-linux-gnu/10/../../../x86_64-linux-gnu/libc.a(msort.o) (_quicksort)
/usr/lib/gcc/x86_64-linux-gnu/10/../../../x86_64-linux-gnu/libc.a(setenv.o)
                              /usr/lib/gcc/x86_64-linux-gnu/10/../../../x86_64-linux-gnu/libc.a(dl-support.o) (__unsetenv)
/usr/lib/gcc/x86_64-linux-gnu/10/../../../x86_64-linux-gnu/libc.a(secure-getenv.o)
                              /usr/lib/gcc/x86_64-linux-gnu/10/../../../x86_64-linux-gnu/libc.a(sysconf.o) (__libc_secure_getenv)
/usr/lib/gcc/x86_64-linux-gnu/10/../../../x86_64-linux-gnu/libc.a(strtol.o)
                              /usr/lib/gcc/x86_64-linux-gnu/10/../../../x86_64-linux-gnu/libc.a(sysconf.o) (strtol)
/usr/lib/gcc/x86_64-linux-gnu/10/../../../x86_64-linux-gnu/libc.a(strtol_l.o)
                              /usr/lib/gcc/x86_64-linux-gnu/10/../../../x86_64-linux-gnu/libc.a(strtol.o) (____strtol_l_internal)
/usr/lib/gcc/x86_64-linux-gnu/10/../../../x86_64-linux-gnu/libc.a(_itoa.o)
                              /usr/lib/gcc/x86_64-linux-gnu/10/../../../x86_64-linux-gnu/libc.a(vfprintf-internal.o) (_itoa_word)
/usr/lib/gcc/x86_64-linux-gnu/10/../../../x86_64-linux-gnu/libc.a(itoa-digits.o)
                              /usr/lib/gcc/x86_64-linux-gnu/10/../../../x86_64-linux-gnu/libc.a(_itoa.o) (_itoa_lower_digits)
/usr/lib/gcc/x86_64-linux-gnu/10/../../../x86_64-linux-gnu/libc.a(itoa-udigits.o)
                              /usr/lib/gcc/x86_64-linux-gnu/10/../../../x86_64-linux-gnu/libc.a(_itoa.o) (_itoa_upper_digits)
/usr/lib/gcc/x86_64-linux-gnu/10/../../../x86_64-linux-gnu/libc.a(printf_fp.o)
                              /usr/lib/gcc/x86_64-linux-gnu/10/../../../x86_64-linux-gnu/libc.a(vfprintf-internal.o) (__printf_fp)
/usr/lib/gcc/x86_64-linux-gnu/10/../../../x86_64-linux-gnu/libc.a(reg-printf.o)
                              /usr/lib/gcc/x86_64-linux-gnu/10/../../../x86_64-linux-gnu/libc.a(vfprintf-internal.o) (__printf_function_table)
/usr/lib/gcc/x86_64-linux-gnu/10/../../../x86_64-linux-gnu/libc.a(printf_fphex.o)
                              /usr/lib/gcc/x86_64-linux-gnu/10/../../../x86_64-linux-gnu/libc.a(vfprintf-internal.o) (__printf_fphex)
/usr/lib/gcc/x86_64-linux-gnu/10/../../../x86_64-linux-gnu/libc.a(reg-modifier.o)
                              /usr/lib/gcc/x86_64-linux-gnu/10/../../../x86_64-linux-gnu/libc.a(vfprintf-internal.o) (__printf_modifier_table)
/usr/lib/gcc/x86_64-linux-gnu/10/../../../x86_64-linux-gnu/libc.a(reg-type.o)
                              /usr/lib/gcc/x86_64-linux-gnu/10/../../../x86_64-linux-gnu/libc.a(vfprintf-internal.o) (__printf_va_arg_table)
/usr/lib/gcc/x86_64-linux-gnu/10/../../../x86_64-linux-gnu/libc.a(funlockfile.o)
                              /usr/lib/gcc/x86_64-linux-gnu/10/../../../x86_64-linux-gnu/libc.a(vfprintf-internal.o) (_IO_funlockfile)
/usr/lib/gcc/x86_64-linux-gnu/10/../../../x86_64-linux-gnu/libc.a(vfwprintf-internal.o)
                              /usr/lib/gcc/x86_64-linux-gnu/10/../../../x86_64-linux-gnu/libc.a(fxprintf.o) (__vfwprintf_internal)
/usr/lib/gcc/x86_64-linux-gnu/10/../../../x86_64-linux-gnu/libc.a(errlist.o)
                              /usr/lib/gcc/x86_64-linux-gnu/10/../../../x86_64-linux-gnu/libc.a(_strerror.o) (_sys_errlist_internal)
/usr/lib/gcc/x86_64-linux-gnu/10/../../../x86_64-linux-gnu/libc.a(printf-parsewc.o)
                              /usr/lib/gcc/x86_64-linux-gnu/10/../../../x86_64-linux-gnu/libc.a(vfwprintf-internal.o) (__parse_one_specwc)
/usr/lib/gcc/x86_64-linux-gnu/10/../../../x86_64-linux-gnu/libc.a(filedoalloc.o)
                              /usr/lib/gcc/x86_64-linux-gnu/10/../../../x86_64-linux-gnu/libc.a(fileops.o) (_IO_file_doallocate)
/usr/lib/gcc/x86_64-linux-gnu/10/../../../x86_64-linux-gnu/libc.a(iofputs.o)
                              /usr/lib/gcc/x86_64-linux-gnu/10/../../../x86_64-linux-gnu/libc.a(malloc.o) (_IO_fputs)
/usr/lib/gcc/x86_64-linux-gnu/10/../../../x86_64-linux-gnu/libc.a(wfiledoalloc.o)
                              /usr/lib/gcc/x86_64-linux-gnu/10/../../../x86_64-linux-gnu/libc.a(wfileops.o) (_IO_wfile_doallocate)
/usr/lib/gcc/x86_64-linux-gnu/10/../../../x86_64-linux-gnu/libc.a(iofwrite.o)
                              /usr/lib/gcc/x86_64-linux-gnu/10/../../../x86_64-linux-gnu/libc.a(malloc.o) (fwrite)
/usr/lib/gcc/x86_64-linux-gnu/10/../../../x86_64-linux-gnu/libc.a(iogetdelim.o)
                              /usr/lib/gcc/x86_64-linux-gnu/10/../../../x86_64-linux-gnu/libc.a(readonly-area.o) (_IO_getdelim)
/usr/lib/gcc/x86_64-linux-gnu/10/../../../x86_64-linux-gnu/libc.a(iogetline.o)
                              /usr/lib/gcc/x86_64-linux-gnu/10/../../../x86_64-linux-gnu/libc.a(iofgets_u.o) (_IO_getline)
/usr/lib/gcc/x86_64-linux-gnu/10/../../../x86_64-linux-gnu/libc.a(iowpadn.o)
                              /usr/lib/gcc/x86_64-linux-gnu/10/../../../x86_64-linux-gnu/libc.a(printf_fp.o) (_IO_wpadn)
/usr/lib/gcc/x86_64-linux-gnu/10/../../../x86_64-linux-gnu/libc.a(wgenops.o)
                              /usr/lib/gcc/x86_64-linux-gnu/10/../../../x86_64-linux-gnu/libc.a(fileops.o) (_IO_wsetb)
/usr/lib/gcc/x86_64-linux-gnu/10/../../../x86_64-linux-gnu/libc.a(libc-cancellation.o)
                              /usr/lib/gcc/x86_64-linux-gnu/10/../../../x86_64-linux-gnu/libc.a(open64.o) (__libc_enable_asynccancel)
/usr/lib/gcc/x86_64-linux-gnu/10/../../../x86_64-linux-gnu/libc.a(strndup.o)
                              /usr/lib/gcc/x86_64-linux-gnu/10/../../../x86_64-linux-gnu/libc.a(findlocale.o) (__strndup)
/usr/lib/gcc/x86_64-linux-gnu/10/../../../x86_64-linux-gnu/libc.a(strrchr.o)
                              /usr/lib/gcc/x86_64-linux-gnu/10/../../../x86_64-linux-gnu/libc.a(init-misc.o) (strrchr)
/usr/lib/gcc/x86_64-linux-gnu/10/../../../x86_64-linux-gnu/libc.a(strtok_r.o)
                              /usr/lib/gcc/x86_64-linux-gnu/10/../../../x86_64-linux-gnu/libc.a(gconv_conf.o) (__strtok_r)
/usr/lib/gcc/x86_64-linux-gnu/10/../../../x86_64-linux-gnu/libc.a(memchr.o)
                              /usr/lib/gcc/x86_64-linux-gnu/10/../../../x86_64-linux-gnu/libc.a(getsysstats.o) (memchr)
/usr/lib/gcc/x86_64-linux-gnu/10/../../../x86_64-linux-gnu/libc.a(memmem.o)
                              /usr/lib/gcc/x86_64-linux-gnu/10/../../../x86_64-linux-gnu/libc.a(findlocale.o) (__memmem)
/usr/lib/gcc/x86_64-linux-gnu/10/../../../x86_64-linux-gnu/libc.a(argz-ctsep.o)
                              /usr/lib/gcc/x86_64-linux-gnu/10/../../../x86_64-linux-gnu/libc.a(setlocale.o) (__argz_create_sep)
/usr/lib/gcc/x86_64-linux-gnu/10/../../../x86_64-linux-gnu/libc.a(argz-addsep.o)
                              /usr/lib/gcc/x86_64-linux-gnu/10/../../../x86_64-linux-gnu/libc.a(setlocale.o) (__argz_add_sep)
/usr/lib/gcc/x86_64-linux-gnu/10/../../../x86_64-linux-gnu/libc.a(memchr-sse2.o)
                              /usr/lib/gcc/x86_64-linux-gnu/10/../../../x86_64-linux-gnu/libc.a(memchr.o) (__memchr_sse2)
/usr/lib/gcc/x86_64-linux-gnu/10/../../../x86_64-linux-gnu/libc.a(memchr-avx2.o)
                              /usr/lib/gcc/x86_64-linux-gnu/10/../../../x86_64-linux-gnu/libc.a(memchr.o) (__memchr_avx2)
/usr/lib/gcc/x86_64-linux-gnu/10/../../../x86_64-linux-gnu/libc.a(strrchr-sse2.o)
                              /usr/lib/gcc/x86_64-linux-gnu/10/../../../x86_64-linux-gnu/libc.a(strrchr.o) (__strrchr_sse2)
/usr/lib/gcc/x86_64-linux-gnu/10/../../../x86_64-linux-gnu/libc.a(strrchr-avx2.o)
                              /usr/lib/gcc/x86_64-linux-gnu/10/../../../x86_64-linux-gnu/libc.a(strrchr.o) (__strrchr_avx2)
/usr/lib/gcc/x86_64-linux-gnu/10/../../../x86_64-linux-gnu/libc.a(wcslen.o)
                              /usr/lib/gcc/x86_64-linux-gnu/10/../../../x86_64-linux-gnu/libc.a(wcsrtombs.o) (__wcslen)
/usr/lib/gcc/x86_64-linux-gnu/10/../../../x86_64-linux-gnu/libc.a(wmemchr.o)
                              /usr/lib/gcc/x86_64-linux-gnu/10/../../../x86_64-linux-gnu/libc.a(wcsnlen-c.o) (__wmemchr)
/usr/lib/gcc/x86_64-linux-gnu/10/../../../x86_64-linux-gnu/libc.a(wmemcpy.o)
                              /usr/lib/gcc/x86_64-linux-gnu/10/../../../x86_64-linux-gnu/libc.a(printf_fp.o) (__wmemcpy)
/usr/lib/gcc/x86_64-linux-gnu/10/../../../x86_64-linux-gnu/libc.a(wmemmove.o)
                              /usr/lib/gcc/x86_64-linux-gnu/10/../../../x86_64-linux-gnu/libc.a(printf_fp.o) (__wmemmove)
/usr/lib/gcc/x86_64-linux-gnu/10/../../../x86_64-linux-gnu/libc.a(wmemset.o)
                              /usr/lib/gcc/x86_64-linux-gnu/10/../../../x86_64-linux-gnu/libc.a(printf_fp.o) (__wmemset)
/usr/lib/gcc/x86_64-linux-gnu/10/../../../x86_64-linux-gnu/libc.a(btowc.o)
                              /usr/lib/gcc/x86_64-linux-gnu/10/../../../x86_64-linux-gnu/libc.a(vfwprintf-internal.o) (__btowc)
/usr/lib/gcc/x86_64-linux-gnu/10/../../../x86_64-linux-gnu/libc.a(wcschrnul.o)
                              /usr/lib/gcc/x86_64-linux-gnu/10/../../../x86_64-linux-gnu/libc.a(vfwprintf-internal.o) (__wcschrnul)
/usr/lib/gcc/x86_64-linux-gnu/10/../../../x86_64-linux-gnu/libc.a(wmemchr-sse2.o)
                              /usr/lib/gcc/x86_64-linux-gnu/10/../../../x86_64-linux-gnu/libc.a(wmemchr.o) (__wmemchr_sse2)
/usr/lib/gcc/x86_64-linux-gnu/10/../../../x86_64-linux-gnu/libc.a(wmemchr-avx2.o)
                              /usr/lib/gcc/x86_64-linux-gnu/10/../../../x86_64-linux-gnu/libc.a(wmemchr.o) (__wmemchr_avx2)
/usr/lib/gcc/x86_64-linux-gnu/10/../../../x86_64-linux-gnu/libc.a(wcslen-sse2.o)
                              /usr/lib/gcc/x86_64-linux-gnu/10/../../../x86_64-linux-gnu/libc.a(wcslen.o) (__wcslen_sse2)
/usr/lib/gcc/x86_64-linux-gnu/10/../../../x86_64-linux-gnu/libc.a(wcslen-avx2.o)
                              /usr/lib/gcc/x86_64-linux-gnu/10/../../../x86_64-linux-gnu/libc.a(wcslen.o) (__wcslen_avx2)
/usr/lib/gcc/x86_64-linux-gnu/10/../../../x86_64-linux-gnu/libc.a(clock_gettime.o)
                              /usr/lib/gcc/x86_64-linux-gnu/10/../../../x86_64-linux-gnu/libc.a(getsysstats.o) (__clock_gettime)
/usr/lib/gcc/x86_64-linux-gnu/10/../../../x86_64-linux-gnu/libc.a(opendir.o)
                              /usr/lib/gcc/x86_64-linux-gnu/10/../../../x86_64-linux-gnu/libc.a(getsysstats.o) (__opendir)
/usr/lib/gcc/x86_64-linux-gnu/10/../../../x86_64-linux-gnu/libc.a(closedir.o)
                              /usr/lib/gcc/x86_64-linux-gnu/10/../../../x86_64-linux-gnu/libc.a(getcwd.o) (__closedir)
/usr/lib/gcc/x86_64-linux-gnu/10/../../../x86_64-linux-gnu/libc.a(rewinddir.o)
                              /usr/lib/gcc/x86_64-linux-gnu/10/../../../x86_64-linux-gnu/libc.a(getcwd.o) (__rewinddir)
/usr/lib/gcc/x86_64-linux-gnu/10/../../../x86_64-linux-gnu/libc.a(readdir64.o)
                              /usr/lib/gcc/x86_64-linux-gnu/10/../../../x86_64-linux-gnu/libc.a(getsysstats.o) (__readdir64)
/usr/lib/gcc/x86_64-linux-gnu/10/../../../x86_64-linux-gnu/libc.a(fdopendir.o)
                              /usr/lib/gcc/x86_64-linux-gnu/10/../../../x86_64-linux-gnu/libc.a(getcwd.o) (__fdopendir)
/usr/lib/gcc/x86_64-linux-gnu/10/../../../x86_64-linux-gnu/libc.a(uname.o)
                              /usr/lib/gcc/x86_64-linux-gnu/10/../../../x86_64-linux-gnu/libc.a(dl-sysdep.o) (__uname)
/usr/lib/gcc/x86_64-linux-gnu/10/../../../x86_64-linux-gnu/libc.a(getuid.o)
                              /usr/lib/gcc/x86_64-linux-gnu/10/../../../x86_64-linux-gnu/libc.a(enbl-secure.o) (__getuid)
/usr/lib/gcc/x86_64-linux-gnu/10/../../../x86_64-linux-gnu/libc.a(geteuid.o)
                              /usr/lib/gcc/x86_64-linux-gnu/10/../../../x86_64-linux-gnu/libc.a(enbl-secure.o) (__geteuid)
/usr/lib/gcc/x86_64-linux-gnu/10/../../../x86_64-linux-gnu/libc.a(getgid.o)
                              /usr/lib/gcc/x86_64-linux-gnu/10/../../../x86_64-linux-gnu/libc.a(enbl-secure.o) (__getgid)
/usr/lib/gcc/x86_64-linux-gnu/10/../../../x86_64-linux-gnu/libc.a(getegid.o)
                              /usr/lib/gcc/x86_64-linux-gnu/10/../../../x86_64-linux-gnu/libc.a(enbl-secure.o) (__getegid)
/usr/lib/gcc/x86_64-linux-gnu/10/../../../x86_64-linux-gnu/libc.a(lxstat.o)
                              /usr/lib/gcc/x86_64-linux-gnu/10/../../../x86_64-linux-gnu/libc.a(getcwd.o) (__lxstat64)
/usr/lib/gcc/x86_64-linux-gnu/10/../../../x86_64-linux-gnu/libc.a(fxstatat.o)
                              /usr/lib/gcc/x86_64-linux-gnu/10/../../../x86_64-linux-gnu/libc.a(getcwd.o) (__fxstatat64)
/usr/lib/gcc/x86_64-linux-gnu/10/../../../x86_64-linux-gnu/libc.a(isatty.o)
                              /usr/lib/gcc/x86_64-linux-gnu/10/../../../x86_64-linux-gnu/libc.a(filedoalloc.o) (__isatty)
/usr/lib/gcc/x86_64-linux-gnu/10/../../../x86_64-linux-gnu/libc.a(tcgetattr.o)
                              /usr/lib/gcc/x86_64-linux-gnu/10/../../../x86_64-linux-gnu/libc.a(isatty.o) (__tcgetattr)
/usr/lib/gcc/x86_64-linux-gnu/10/../../../x86_64-linux-gnu/libc.a(brk.o)
                              /usr/lib/gcc/x86_64-linux-gnu/10/../../../x86_64-linux-gnu/libc.a(sbrk.o) (__brk)
/usr/lib/gcc/x86_64-linux-gnu/10/../../../x86_64-linux-gnu/libc.a(dl-load.o)
                              /usr/lib/gcc/x86_64-linux-gnu/10/../../../x86_64-linux-gnu/libc.a(dl-support.o) (_dl_init_paths)
/usr/lib/gcc/x86_64-linux-gnu/10/../../../x86_64-linux-gnu/libc.a(dl-lookup.o)
                              /usr/lib/gcc/x86_64-linux-gnu/10/../../../x86_64-linux-gnu/libc.a(dl-support.o) (_dl_lookup_symbol_x)
/usr/lib/gcc/x86_64-linux-gnu/10/../../../x86_64-linux-gnu/libc.a(dl-object.o)
                              /usr/lib/gcc/x86_64-linux-gnu/10/../../../x86_64-linux-gnu/libc.a(dl-support.o) (_dl_add_to_namespace_list)
/usr/lib/gcc/x86_64-linux-gnu/10/../../../x86_64-linux-gnu/libc.a(dl-reloc.o)
                              /usr/lib/gcc/x86_64-linux-gnu/10/../../../x86_64-linux-gnu/libc.a(dl-support.o) (_dl_nothread_init_static_tls)
/usr/lib/gcc/x86_64-linux-gnu/10/../../../x86_64-linux-gnu/libc.a(dl-hwcaps.o)
                              /usr/lib/gcc/x86_64-linux-gnu/10/../../../x86_64-linux-gnu/libc.a(dl-load.o) (_dl_important_hwcaps)
/usr/lib/gcc/x86_64-linux-gnu/10/../../../x86_64-linux-gnu/libc.a(dl-misc.o)
                              /usr/lib/gcc/x86_64-linux-gnu/10/../../../x86_64-linux-gnu/libc.a(dl-support.o) (_dl_debug_printf)
/usr/lib/gcc/x86_64-linux-gnu/10/../../../x86_64-linux-gnu/libc.a(dl-profile.o)
                              /usr/lib/gcc/x86_64-linux-gnu/10/../../../x86_64-linux-gnu/libc.a(dl-profstub.o) (_dl_mcount)
/usr/lib/gcc/x86_64-linux-gnu/10/../../../x86_64-linux-gnu/libc.a(dl-origin.o)
                              /usr/lib/gcc/x86_64-linux-gnu/10/../../../x86_64-linux-gnu/libc.a(dl-support.o) (_dl_get_origin)
/usr/lib/gcc/x86_64-linux-gnu/10/../../../x86_64-linux-gnu/libc.a(dl-scope.o)
                              /usr/lib/gcc/x86_64-linux-gnu/10/../../../x86_64-linux-gnu/libc.a(dl-lookup.o) (_dl_scope_free)
/usr/lib/gcc/x86_64-linux-gnu/10/../../../x86_64-linux-gnu/libc.a(dl-execstack.o)
                              /usr/lib/gcc/x86_64-linux-gnu/10/../../../x86_64-linux-gnu/libc.a(dl-support.o) (_dl_make_stack_executable)
/usr/lib/gcc/x86_64-linux-gnu/10/../../../x86_64-linux-gnu/libc.a(dl-trampoline.o)
                              /usr/lib/gcc/x86_64-linux-gnu/10/../../../x86_64-linux-gnu/libc.a(dl-reloc.o) (_dl_runtime_profile_avx512)
/usr/lib/gcc/x86_64-linux-gnu/10/../../../x86_64-linux-gnu/libc.a(dl-exception.o)
                              /usr/lib/gcc/x86_64-linux-gnu/10/../../../x86_64-linux-gnu/libc.a(dl-error.o) (_dl_exception_create)
/usr/lib/gcc/x86_64-linux-gnu/10/../../../x86_64-linux-gnu/libc.a(dl-cache.o)
                              /usr/lib/gcc/x86_64-linux-gnu/10/../../../x86_64-linux-gnu/libc.a(dl-load.o) (_dl_load_cache_lookup)
/usr/lib/gcc/x86_64-linux-gnu/10/../../../x86_64-linux-gnu/libc.a(dl-tlsdesc.o)
                              /usr/lib/gcc/x86_64-linux-gnu/10/../../../x86_64-linux-gnu/libc.a(dl-reloc.o) (_dl_tlsdesc_return)
/usr/lib/gcc/x86_64-linux-gnu/10/../../../x86_64-linux-gnu/libc.a(dl-libc.o)
                              /usr/lib/gcc/x86_64-linux-gnu/10/../../../x86_64-linux-gnu/libc.a(gconv_dl.o) (__libc_dlsym)
/usr/lib/gcc/x86_64-linux-gnu/10/../../../x86_64-linux-gnu/libc.a(lc-monetary.o)
                              /usr/lib/gcc/x86_64-linux-gnu/10/../../../x86_64-linux-gnu/libc.a(printf_fphex.o) (_nl_current_LC_MONETARY)
/usr/lib/gcc/x86_64-linux-gnu/10/../../../x86_64-linux-gnu/libc.a(C-messages.o)
                              /usr/lib/gcc/x86_64-linux-gnu/10/../../../x86_64-linux-gnu/libc.a(xlocale.o) (_nl_C_LC_MESSAGES)
/usr/lib/gcc/x86_64-linux-gnu/10/../../../x86_64-linux-gnu/libc.a(C-monetary.o)
                              /usr/lib/gcc/x86_64-linux-gnu/10/../../../x86_64-linux-gnu/libc.a(xlocale.o) (_nl_C_LC_MONETARY)
/usr/lib/gcc/x86_64-linux-gnu/10/../../../x86_64-linux-gnu/libc.a(C-numeric.o)
                              /usr/lib/gcc/x86_64-linux-gnu/10/../../../x86_64-linux-gnu/libc.a(xlocale.o) (_nl_C_LC_NUMERIC)
/usr/lib/gcc/x86_64-linux-gnu/10/../../../x86_64-linux-gnu/libc.a(C-time.o)
                              /usr/lib/gcc/x86_64-linux-gnu/10/../../../x86_64-linux-gnu/libc.a(xlocale.o) (_nl_C_LC_TIME)
/usr/lib/gcc/x86_64-linux-gnu/10/../../../x86_64-linux-gnu/libc.a(C-paper.o)
                              /usr/lib/gcc/x86_64-linux-gnu/10/../../../x86_64-linux-gnu/libc.a(xlocale.o) (_nl_C_LC_PAPER)
/usr/lib/gcc/x86_64-linux-gnu/10/../../../x86_64-linux-gnu/libc.a(C-name.o)
                              /usr/lib/gcc/x86_64-linux-gnu/10/../../../x86_64-linux-gnu/libc.a(xlocale.o) (_nl_C_LC_NAME)
/usr/lib/gcc/x86_64-linux-gnu/10/../../../x86_64-linux-gnu/libc.a(C-address.o)
                              /usr/lib/gcc/x86_64-linux-gnu/10/../../../x86_64-linux-gnu/libc.a(xlocale.o) (_nl_C_LC_ADDRESS)
/usr/lib/gcc/x86_64-linux-gnu/10/../../../x86_64-linux-gnu/libc.a(C-telephone.o)
                              /usr/lib/gcc/x86_64-linux-gnu/10/../../../x86_64-linux-gnu/libc.a(xlocale.o) (_nl_C_LC_TELEPHONE)
/usr/lib/gcc/x86_64-linux-gnu/10/../../../x86_64-linux-gnu/libc.a(C-measurement.o)
                              /usr/lib/gcc/x86_64-linux-gnu/10/../../../x86_64-linux-gnu/libc.a(xlocale.o) (_nl_C_LC_MEASUREMENT)
/usr/lib/gcc/x86_64-linux-gnu/10/../../../x86_64-linux-gnu/libc.a(C-identification.o)
                              /usr/lib/gcc/x86_64-linux-gnu/10/../../../x86_64-linux-gnu/libc.a(xlocale.o) (_nl_C_LC_IDENTIFICATION)
/usr/lib/gcc/x86_64-linux-gnu/10/../../../x86_64-linux-gnu/libc.a(C-collate.o)
                              /usr/lib/gcc/x86_64-linux-gnu/10/../../../x86_64-linux-gnu/libc.a(xlocale.o) (_nl_C_LC_COLLATE)
/usr/lib/gcc/x86_64-linux-gnu/10/../../../x86_64-linux-gnu/libc.a(cmp.o)
                              /usr/lib/gcc/x86_64-linux-gnu/10/../../../x86_64-linux-gnu/libc.a(printf_fp.o) (__mpn_cmp)
/usr/lib/gcc/x86_64-linux-gnu/10/../../../x86_64-linux-gnu/libc.a(divrem.o)
                              /usr/lib/gcc/x86_64-linux-gnu/10/../../../x86_64-linux-gnu/libc.a(printf_fp.o) (__mpn_divrem)
/usr/lib/gcc/x86_64-linux-gnu/10/../../../x86_64-linux-gnu/libc.a(lshift.o)
                              /usr/lib/gcc/x86_64-linux-gnu/10/../../../x86_64-linux-gnu/libc.a(printf_fp.o) (__mpn_lshift)
/usr/lib/gcc/x86_64-linux-gnu/10/../../../x86_64-linux-gnu/libc.a(rshift.o)
                              /usr/lib/gcc/x86_64-linux-gnu/10/../../../x86_64-linux-gnu/libc.a(printf_fp.o) (__mpn_rshift)
/usr/lib/gcc/x86_64-linux-gnu/10/../../../x86_64-linux-gnu/libc.a(mul.o)
                              /usr/lib/gcc/x86_64-linux-gnu/10/../../../x86_64-linux-gnu/libc.a(printf_fp.o) (__mpn_mul)
/usr/lib/gcc/x86_64-linux-gnu/10/../../../x86_64-linux-gnu/libc.a(mul_1.o)
                              /usr/lib/gcc/x86_64-linux-gnu/10/../../../x86_64-linux-gnu/libc.a(printf_fp.o) (__mpn_mul_1)
/usr/lib/gcc/x86_64-linux-gnu/10/../../../x86_64-linux-gnu/libc.a(mul_n.o)
                              /usr/lib/gcc/x86_64-linux-gnu/10/../../../x86_64-linux-gnu/libc.a(mul.o) (__mpn_impn_mul_n)
/usr/lib/gcc/x86_64-linux-gnu/10/../../../x86_64-linux-gnu/libc.a(sub_n.o)
                              /usr/lib/gcc/x86_64-linux-gnu/10/../../../x86_64-linux-gnu/libc.a(divrem.o) (__mpn_sub_n)
/usr/lib/gcc/x86_64-linux-gnu/10/../../../x86_64-linux-gnu/libc.a(submul_1.o)
                              /usr/lib/gcc/x86_64-linux-gnu/10/../../../x86_64-linux-gnu/libc.a(divrem.o) (__mpn_submul_1)
/usr/lib/gcc/x86_64-linux-gnu/10/../../../x86_64-linux-gnu/libc.a(dbl2mpn.o)
                              /usr/lib/gcc/x86_64-linux-gnu/10/../../../x86_64-linux-gnu/libc.a(printf_fp.o) (__mpn_extract_double)
/usr/lib/gcc/x86_64-linux-gnu/10/../../../x86_64-linux-gnu/libc.a(ldbl2mpn.o)
                              /usr/lib/gcc/x86_64-linux-gnu/10/../../../x86_64-linux-gnu/libc.a(printf_fp.o) (__mpn_extract_long_double)
/usr/lib/gcc/x86_64-linux-gnu/10/../../../x86_64-linux-gnu/libc.a(float1282mpn.o)
                              /usr/lib/gcc/x86_64-linux-gnu/10/../../../x86_64-linux-gnu/libc.a(printf_fp.o) (__mpn_extract_float128)
/usr/lib/gcc/x86_64-linux-gnu/10/../../../x86_64-linux-gnu/libc.a(fpioconst.o)
                              /usr/lib/gcc/x86_64-linux-gnu/10/../../../x86_64-linux-gnu/libc.a(printf_fp.o) (_fpioconst_pow10)
/usr/lib/gcc/x86_64-linux-gnu/10/../../../x86_64-linux-gnu/libc.a(itowa-digits.o)
                              /usr/lib/gcc/x86_64-linux-gnu/10/../../../x86_64-linux-gnu/libc.a(printf_fphex.o) (_itowa_upper_digits)
/usr/lib/gcc/x86_64-linux-gnu/10/../../../x86_64-linux-gnu/libc.a(sdlerror.o)
                              /usr/lib/gcc/x86_64-linux-gnu/10/../../../x86_64-linux-gnu/libc.a(dl-libc.o) (__libc_register_dlfcn_hook)
/usr/lib/gcc/x86_64-linux-gnu/10/../../../x86_64-linux-gnu/libc.a(sdladdr.o)
                              /usr/lib/gcc/x86_64-linux-gnu/10/../../../x86_64-linux-gnu/libc.a(sdlerror.o) (__dladdr)
/usr/lib/gcc/x86_64-linux-gnu/10/../../../x86_64-linux-gnu/libc.a(sdladdr1.o)
                              /usr/lib/gcc/x86_64-linux-gnu/10/../../../x86_64-linux-gnu/libc.a(sdlerror.o) (__dladdr1)
/usr/lib/gcc/x86_64-linux-gnu/10/../../../x86_64-linux-gnu/libc.a(sdlinfo.o)
                              /usr/lib/gcc/x86_64-linux-gnu/10/../../../x86_64-linux-gnu/libc.a(sdlerror.o) (__dlinfo)
/usr/lib/gcc/x86_64-linux-gnu/10/../../../x86_64-linux-gnu/libc.a(sdlmopen.o)
                              /usr/lib/gcc/x86_64-linux-gnu/10/../../../x86_64-linux-gnu/libc.a(sdlerror.o) (__dlmopen)
/usr/lib/gcc/x86_64-linux-gnu/10/../../../x86_64-linux-gnu/libc.a(strerror.o)
                              /usr/lib/gcc/x86_64-linux-gnu/10/../../../x86_64-linux-gnu/libc.a(sdlerror.o) (strerror)
/usr/lib/gcc/x86_64-linux-gnu/10/../../../x86_64-linux-gnu/libc.a(strspn.o)
                              /usr/lib/gcc/x86_64-linux-gnu/10/../../../x86_64-linux-gnu/libc.a(strtok_r.o) (strspn)
/usr/lib/gcc/x86_64-linux-gnu/10/../../../x86_64-linux-gnu/libc.a(strsep.o)
                              /usr/lib/gcc/x86_64-linux-gnu/10/../../../x86_64-linux-gnu/libc.a(dl-load.o) (__strsep)
/usr/lib/gcc/x86_64-linux-gnu/10/../../../x86_64-linux-gnu/libc.a(strspn-sse2.o)
                              /usr/lib/gcc/x86_64-linux-gnu/10/../../../x86_64-linux-gnu/libc.a(strspn.o) (__strspn_sse2)
/usr/lib/gcc/x86_64-linux-gnu/10/../../../x86_64-linux-gnu/libc.a(strspn-c.o)
                              /usr/lib/gcc/x86_64-linux-gnu/10/../../../x86_64-linux-gnu/libc.a(strspn.o) (__strspn_sse42)
/usr/lib/gcc/x86_64-linux-gnu/10/../../../x86_64-linux-gnu/libc.a(getdents64.o)
                              /usr/lib/gcc/x86_64-linux-gnu/10/../../../x86_64-linux-gnu/libc.a(readdir64.o) (__getdents64)
/usr/lib/gcc/x86_64-linux-gnu/10/../../../x86_64-linux-gnu/libc.a(getpid.o)
                              /usr/lib/gcc/x86_64-linux-gnu/10/../../../x86_64-linux-gnu/libc.a(dl-misc.o) (__getpid)
/usr/lib/gcc/x86_64-linux-gnu/10/../../../x86_64-linux-gnu/libc.a(pread64_nocancel.o)
                              /usr/lib/gcc/x86_64-linux-gnu/10/../../../x86_64-linux-gnu/libc.a(dl-load.o) (__pread64_nocancel)
/usr/lib/gcc/x86_64-linux-gnu/10/../../../x86_64-linux-gnu/libc.a(profil.o)
                              /usr/lib/gcc/x86_64-linux-gnu/10/../../../x86_64-linux-gnu/libc.a(dl-profile.o) (__profil)
/usr/lib/gcc/x86_64-linux-gnu/10/../../../x86_64-linux-gnu/libc.a(prof-freq.o)
                              /usr/lib/gcc/x86_64-linux-gnu/10/../../../x86_64-linux-gnu/libc.a(dl-profile.o) (__profile_frequency)
/usr/lib/gcc/x86_64-linux-gnu/10/../../../x86_64-linux-gnu/libc.a(dl-runtime.o)
                              /usr/lib/gcc/x86_64-linux-gnu/10/../../../x86_64-linux-gnu/libc.a(dl-trampoline.o) (_dl_fixup)
/usr/lib/gcc/x86_64-linux-gnu/10/../../../x86_64-linux-gnu/libc.a(dl-open.o)
                              /usr/lib/gcc/x86_64-linux-gnu/10/../../../x86_64-linux-gnu/libc.a(dl-libc.o) (_dl_open)
/usr/lib/gcc/x86_64-linux-gnu/10/../../../x86_64-linux-gnu/libc.a(dl-close.o)
                              /usr/lib/gcc/x86_64-linux-gnu/10/../../../x86_64-linux-gnu/libc.a(dl-open.o) (_dl_close_worker)
/usr/lib/gcc/x86_64-linux-gnu/10/../../../x86_64-linux-gnu/libc.a(dl-sort-maps.o)
                              /usr/lib/gcc/x86_64-linux-gnu/10/../../../x86_64-linux-gnu/libc.a(dl-open.o) (_dl_sort_maps)
/usr/lib/gcc/x86_64-linux-gnu/10/../../../x86_64-linux-gnu/libc.a(tlsdesc.o)
                              /usr/lib/gcc/x86_64-linux-gnu/10/../../../x86_64-linux-gnu/libc.a(dl-tlsdesc.o) (_dl_tlsdesc_resolve_rela_fixup)
/usr/lib/gcc/x86_64-linux-gnu/10/../../../x86_64-linux-gnu/libc.a(dl-addr.o)
                              /usr/lib/gcc/x86_64-linux-gnu/10/../../../x86_64-linux-gnu/libc.a(sdladdr.o) (_dl_addr)
/usr/lib/gcc/x86_64-linux-gnu/10/../../../x86_64-linux-gnu/libc.a(dl-addr-obj.o)
                              /usr/lib/gcc/x86_64-linux-gnu/10/../../../x86_64-linux-gnu/libc.a(dl-open.o) (_dl_addr_inside_object)
/usr/lib/gcc/x86_64-linux-gnu/10/../../../x86_64-linux-gnu/libc.a(add_n.o)
                              /usr/lib/gcc/x86_64-linux-gnu/10/../../../x86_64-linux-gnu/libc.a(divrem.o) (__mpn_add_n)
/usr/lib/gcc/x86_64-linux-gnu/10/../../../x86_64-linux-gnu/libc.a(addmul_1.o)
                              /usr/lib/gcc/x86_64-linux-gnu/10/../../../x86_64-linux-gnu/libc.a(mul.o) (__mpn_addmul_1)
/usr/lib/gcc/x86_64-linux-gnu/10/../../../x86_64-linux-gnu/libc.a(sdlopen.o)
                              /usr/lib/gcc/x86_64-linux-gnu/10/../../../x86_64-linux-gnu/libc.a(sdlerror.o) (__dlopen)
/usr/lib/gcc/x86_64-linux-gnu/10/../../../x86_64-linux-gnu/libc.a(sdlclose.o)
                              /usr/lib/gcc/x86_64-linux-gnu/10/../../../x86_64-linux-gnu/libc.a(sdlerror.o) (__dlclose)
/usr/lib/gcc/x86_64-linux-gnu/10/../../../x86_64-linux-gnu/libc.a(sdlsym.o)
                              /usr/lib/gcc/x86_64-linux-gnu/10/../../../x86_64-linux-gnu/libc.a(sdlerror.o) (__dlsym)
/usr/lib/gcc/x86_64-linux-gnu/10/../../../x86_64-linux-gnu/libc.a(sdlvsym.o)
                              /usr/lib/gcc/x86_64-linux-gnu/10/../../../x86_64-linux-gnu/libc.a(sdlerror.o) (__dlvsym)
/usr/lib/gcc/x86_64-linux-gnu/10/../../../x86_64-linux-gnu/libc.a(setitimer.o)
                              /usr/lib/gcc/x86_64-linux-gnu/10/../../../x86_64-linux-gnu/libc.a(profil.o) (__setitimer)
/usr/lib/gcc/x86_64-linux-gnu/10/../../../x86_64-linux-gnu/libc.a(dl-deps.o)
                              /usr/lib/gcc/x86_64-linux-gnu/10/../../../x86_64-linux-gnu/libc.a(dl-open.o) (_dl_map_object_deps)
/usr/lib/gcc/x86_64-linux-gnu/10/../../../x86_64-linux-gnu/libc.a(dl-init.o)
                              /usr/lib/gcc/x86_64-linux-gnu/10/../../../x86_64-linux-gnu/libc.a(dl-open.o) (_dl_init)
/usr/lib/gcc/x86_64-linux-gnu/10/../../../x86_64-linux-gnu/libc.a(dl-version.o)
                              /usr/lib/gcc/x86_64-linux-gnu/10/../../../x86_64-linux-gnu/libc.a(dl-open.o) (_dl_check_map_versions)
/usr/lib/gcc/x86_64-linux-gnu/10/../../../x86_64-linux-gnu/libc.a(dl-sym.o)
                              /usr/lib/gcc/x86_64-linux-gnu/10/../../../x86_64-linux-gnu/libc.a(sdlvsym.o) (_dl_vsym)
/usr/lib/gcc/x86_64-linux-gnu/10/libgcc.a(unordtf2.o)
                              /usr/lib/gcc/x86_64-linux-gnu/10/../../../x86_64-linux-gnu/libc.a(printf_fp.o) (__unordtf2)
/usr/lib/gcc/x86_64-linux-gnu/10/libgcc.a(letf2.o)
                              /usr/lib/gcc/x86_64-linux-gnu/10/../../../x86_64-linux-gnu/libc.a(printf_fp.o) (__letf2)
/usr/lib/gcc/x86_64-linux-gnu/10/libgcc.a(sfp-exceptions.o)
                              /usr/lib/gcc/x86_64-linux-gnu/10/libgcc.a(unordtf2.o) (__sfp_handle_exceptions)
/usr/lib/gcc/x86_64-linux-gnu/10/libgcc_eh.a(unwind-dw2.o)
                              /usr/lib/gcc/x86_64-linux-gnu/10/../../../x86_64-linux-gnu/libc.a(iofclose.o) (_Unwind_Resume)
/usr/lib/gcc/x86_64-linux-gnu/10/libgcc_eh.a(unwind-dw2-fde-dip.o)
                              /usr/lib/gcc/x86_64-linux-gnu/10/libgcc_eh.a(unwind-dw2.o) (_Unwind_Find_FDE)
/usr/lib/gcc/x86_64-linux-gnu/10/libgcc_eh.a(unwind-c.o)
                              /usr/lib/gcc/x86_64-linux-gnu/10/../../../x86_64-linux-gnu/libc.a(iofclose.o) (__gcc_personality_v0)
/usr/lib/gcc/x86_64-linux-gnu/10/../../../x86_64-linux-gnu/libc.a(dl-iteratephdr.o)
                              /usr/lib/gcc/x86_64-linux-gnu/10/libgcc_eh.a(unwind-dw2-fde-dip.o) (dl_iterate_phdr)
Local IFUNC function `strcpy' in /usr/lib/gcc/x86_64-linux-gnu/10/../../../x86_64-linux-gnu/libc.a(strcpy.o)
Local IFUNC function `__strnlen' in /usr/lib/gcc/x86_64-linux-gnu/10/../../../x86_64-linux-gnu/libc.a(strnlen.o)
Local IFUNC function `memmove' in /usr/lib/gcc/x86_64-linux-gnu/10/../../../x86_64-linux-gnu/libc.a(memmove.o)
Local IFUNC function `__rawmemchr' in /usr/lib/gcc/x86_64-linux-gnu/10/../../../x86_64-linux-gnu/libc.a(rawmemchr.o)
Local IFUNC function `memcpy' in /usr/lib/gcc/x86_64-linux-gnu/10/../../../x86_64-linux-gnu/libc.a(memcpy.o)
Local IFUNC function `__wcslen' in /usr/lib/gcc/x86_64-linux-gnu/10/../../../x86_64-linux-gnu/libc.a(wcslen.o)
Local IFUNC function `strrchr' in /usr/lib/gcc/x86_64-linux-gnu/10/../../../x86_64-linux-gnu/libc.a(strrchr.o)
Local IFUNC function `__stpcpy' in /usr/lib/gcc/x86_64-linux-gnu/10/../../../x86_64-linux-gnu/libc.a(stpcpy.o)
Local IFUNC function `__strchrnul' in /usr/lib/gcc/x86_64-linux-gnu/10/../../../x86_64-linux-gnu/libc.a(strchrnul.o)
Local IFUNC function `memchr' in /usr/lib/gcc/x86_64-linux-gnu/10/../../../x86_64-linux-gnu/libc.a(memchr.o)
Local IFUNC function `strstr' in /usr/lib/gcc/x86_64-linux-gnu/10/../../../x86_64-linux-gnu/libc.a(strstr.o)
Local IFUNC function `strncmp' in /usr/lib/gcc/x86_64-linux-gnu/10/../../../x86_64-linux-gnu/libc.a(strncmp.o)
Local IFUNC function `memcmp' in /usr/lib/gcc/x86_64-linux-gnu/10/../../../x86_64-linux-gnu/libc.a(memcmp.o)
Local IFUNC function `__strcasecmp_l' in /usr/lib/gcc/x86_64-linux-gnu/10/../../../x86_64-linux-gnu/libc.a(strcasecmp_l.o)
Local IFUNC function `__wmemchr' in /usr/lib/gcc/x86_64-linux-gnu/10/../../../x86_64-linux-gnu/libc.a(wmemchr.o)
Local IFUNC function `memset' in /usr/lib/gcc/x86_64-linux-gnu/10/../../../x86_64-linux-gnu/libc.a(memset.o)
Local IFUNC function `__wcsnlen' in /usr/lib/gcc/x86_64-linux-gnu/10/../../../x86_64-linux-gnu/libc.a(wcsnlen.o)
Local IFUNC function `strcmp' in /usr/lib/gcc/x86_64-linux-gnu/10/../../../x86_64-linux-gnu/libc.a(strcmp.o)
Local IFUNC function `__wmemset' in /usr/lib/gcc/x86_64-linux-gnu/10/../../../x86_64-linux-gnu/libc.a(wmemset.o)
Local IFUNC function `__mempcpy' in /usr/lib/gcc/x86_64-linux-gnu/10/../../../x86_64-linux-gnu/libc.a(mempcpy.o)
Local IFUNC function `strcspn' in /usr/lib/gcc/x86_64-linux-gnu/10/../../../x86_64-linux-gnu/libc.a(strcspn.o)
Local IFUNC function `strspn' in /usr/lib/gcc/x86_64-linux-gnu/10/../../../x86_64-linux-gnu/libc.a(strspn.o)
Local IFUNC function `strlen' in /usr/lib/gcc/x86_64-linux-gnu/10/../../../x86_64-linux-gnu/libc.a(strlen.o)
Local IFUNC function `strchr' in /usr/lib/gcc/x86_64-linux-gnu/10/../../../x86_64-linux-gnu/libc.a(strchr.o)

Discarded input sections

 .note.GNU-stack
                0x0000000000000000        0x0 /usr/lib/gcc/x86_64-linux-gnu/10/../../../x86_64-linux-gnu/crt1.o
 .note.GNU-stack
                0x0000000000000000        0x0 /usr/lib/gcc/x86_64-linux-gnu/10/../../../x86_64-linux-gnu/crti.o
 .note.GNU-stack
                0x0000000000000000        0x0 /usr/lib/gcc/x86_64-linux-gnu/10/crtbeginT.o
 .note.GNU-stack
                0x0000000000000000        0x0 ropex.o
 .note.GNU-stack
                0x0000000000000000        0x0 /usr/lib/gcc/x86_64-linux-gnu/10/../../../x86_64-linux-gnu/libc.a(libc-start.o)
 .note.GNU-stack
                0x0000000000000000        0x0 /usr/lib/gcc/x86_64-linux-gnu/10/../../../x86_64-linux-gnu/libc.a(check_fds.o)
 .note.GNU-stack
                0x0000000000000000        0x0 /usr/lib/gcc/x86_64-linux-gnu/10/../../../x86_64-linux-gnu/libc.a(libc-tls.o)
 .note.GNU-stack
                0x0000000000000000        0x0 /usr/lib/gcc/x86_64-linux-gnu/10/../../../x86_64-linux-gnu/libc.a(elf-init.o)
 .note.GNU-stack
                0x0000000000000000        0x0 /usr/lib/gcc/x86_64-linux-gnu/10/../../../x86_64-linux-gnu/libc.a(errno.o)
 .note.GNU-stack
                0x0000000000000000        0x0 /usr/lib/gcc/x86_64-linux-gnu/10/../../../x86_64-linux-gnu/libc.a(assert.o)
 .note.GNU-stack
                0x0000000000000000        0x0 /usr/lib/gcc/x86_64-linux-gnu/10/../../../x86_64-linux-gnu/libc.a(dcgettext.o)
 .note.GNU-stack
                0x0000000000000000        0x0 /usr/lib/gcc/x86_64-linux-gnu/10/../../../x86_64-linux-gnu/libc.a(dcigettext.o)
 .note.GNU-stack
                0x0000000000000000        0x0 /usr/lib/gcc/x86_64-linux-gnu/10/../../../x86_64-linux-gnu/libc.a(finddomain.o)
 .note.GNU-stack
                0x0000000000000000        0x0 /usr/lib/gcc/x86_64-linux-gnu/10/../../../x86_64-linux-gnu/libc.a(loadmsgcat.o)
 .note.GNU-stack
                0x0000000000000000        0x0 /usr/lib/gcc/x86_64-linux-gnu/10/../../../x86_64-linux-gnu/libc.a(localealias.o)
 .note.GNU-stack
                0x0000000000000000        0x0 /usr/lib/gcc/x86_64-linux-gnu/10/../../../x86_64-linux-gnu/libc.a(l10nflist.o)
 .note.GNU-stack
                0x0000000000000000        0x0 /usr/lib/gcc/x86_64-linux-gnu/10/../../../x86_64-linux-gnu/libc.a(explodename.o)
 .note.GNU-stack
                0x0000000000000000        0x0 /usr/lib/gcc/x86_64-linux-gnu/10/../../../x86_64-linux-gnu/libc.a(plural.o)
 .note.GNU-stack
                0x0000000000000000        0x0 /usr/lib/gcc/x86_64-linux-gnu/10/../../../x86_64-linux-gnu/libc.a(plural-exp.o)
 .note.GNU-stack
                0x0000000000000000        0x0 /usr/lib/gcc/x86_64-linux-gnu/10/../../../x86_64-linux-gnu/libc.a(hash-string.o)
 .note.GNU-stack
                0x0000000000000000        0x0 /usr/lib/gcc/x86_64-linux-gnu/10/../../../x86_64-linux-gnu/libc.a(bsd-_setjmp.o)
 .note.GNU-stack
                0x0000000000000000        0x0 /usr/lib/gcc/x86_64-linux-gnu/10/../../../x86_64-linux-gnu/libc.a(raise.o)
 .note.GNU-stack
                0x0000000000000000        0x0 /usr/lib/gcc/x86_64-linux-gnu/10/../../../x86_64-linux-gnu/libc.a(abort.o)
 .note.GNU-stack
                0x0000000000000000        0x0 /usr/lib/gcc/x86_64-linux-gnu/10/../../../x86_64-linux-gnu/libc.a(msort.o)
 .note.GNU-stack
                0x0000000000000000        0x0 /usr/lib/gcc/x86_64-linux-gnu/10/../../../x86_64-linux-gnu/libc.a(getenv.o)
 .note.GNU-stack
                0x0000000000000000        0x0 /usr/lib/gcc/x86_64-linux-gnu/10/../../../x86_64-linux-gnu/libc.a(exit.o)
 .note.GNU-stack
                0x0000000000000000        0x0 /usr/lib/gcc/x86_64-linux-gnu/10/../../../x86_64-linux-gnu/libc.a(cxa_atexit.o)
 .note.GNU-stack
                0x0000000000000000        0x0 /usr/lib/gcc/x86_64-linux-gnu/10/../../../x86_64-linux-gnu/libc.a(strtoul.o)
 .note.GNU-stack
                0x0000000000000000        0x0 /usr/lib/gcc/x86_64-linux-gnu/10/../../../x86_64-linux-gnu/libc.a(strtoul_l.o)
 .note.GNU-stack
                0x0000000000000000        0x0 /usr/lib/gcc/x86_64-linux-gnu/10/../../../x86_64-linux-gnu/libc.a(grouping.o)
 .note.GNU-stack
                0x0000000000000000        0x0 /usr/lib/gcc/x86_64-linux-gnu/10/../../../x86_64-linux-gnu/libc.a(fprintf.o)
 .note.GNU-stack
                0x0000000000000000        0x0 /usr/lib/gcc/x86_64-linux-gnu/10/../../../x86_64-linux-gnu/libc.a(asprintf.o)
 .note.GNU-stack
                0x0000000000000000        0x0 /usr/lib/gcc/x86_64-linux-gnu/10/../../../x86_64-linux-gnu/libc.a(vfprintf-internal.o)
 .note.GNU-stack
                0x0000000000000000        0x0 /usr/lib/gcc/x86_64-linux-gnu/10/../../../x86_64-linux-gnu/libc.a(printf-parsemb.o)
 .note.GNU-stack
                0x0000000000000000        0x0 /usr/lib/gcc/x86_64-linux-gnu/10/../../../x86_64-linux-gnu/libc.a(fxprintf.o)
 .group         0x0000000000000000        0xc /usr/lib/gcc/x86_64-linux-gnu/10/../../../x86_64-linux-gnu/libc.a(iofclose.o)
 .note.GNU-stack
                0x0000000000000000        0x0 /usr/lib/gcc/x86_64-linux-gnu/10/../../../x86_64-linux-gnu/libc.a(iofclose.o)
 .group         0x0000000000000000        0xc /usr/lib/gcc/x86_64-linux-gnu/10/../../../x86_64-linux-gnu/libc.a(iofflush.o)
 .data.rel.local.DW.ref.__gcc_personality_v0
                0x0000000000000000        0x8 /usr/lib/gcc/x86_64-linux-gnu/10/../../../x86_64-linux-gnu/libc.a(iofflush.o)
 .note.GNU-stack
                0x0000000000000000        0x0 /usr/lib/gcc/x86_64-linux-gnu/10/../../../x86_64-linux-gnu/libc.a(iofflush.o)
 .note.GNU-stack
                0x0000000000000000        0x0 /usr/lib/gcc/x86_64-linux-gnu/10/../../../x86_64-linux-gnu/libc.a(iofopen.o)
 .note.GNU-stack
                0x0000000000000000        0x0 /usr/lib/gcc/x86_64-linux-gnu/10/../../../x86_64-linux-gnu/libc.a(iopadn.o)
 .group         0x0000000000000000        0xc /usr/lib/gcc/x86_64-linux-gnu/10/../../../x86_64-linux-gnu/libc.a(ioputs.o)
 .data.rel.local.DW.ref.__gcc_personality_v0
                0x0000000000000000        0x8 /usr/lib/gcc/x86_64-linux-gnu/10/../../../x86_64-linux-gnu/libc.a(ioputs.o)
 .note.GNU-stack
                0x0000000000000000        0x0 /usr/lib/gcc/x86_64-linux-gnu/10/../../../x86_64-linux-gnu/libc.a(ioputs.o)
 .group         0x0000000000000000        0xc /usr/lib/gcc/x86_64-linux-gnu/10/../../../x86_64-linux-gnu/libc.a(wfileops.o)
 .data.rel.local.DW.ref.__gcc_personality_v0
                0x0000000000000000        0x8 /usr/lib/gcc/x86_64-linux-gnu/10/../../../x86_64-linux-gnu/libc.a(wfileops.o)
 .note.GNU-stack
                0x0000000000000000        0x0 /usr/lib/gcc/x86_64-linux-gnu/10/../../../x86_64-linux-gnu/libc.a(wfileops.o)
 .note.GNU-stack
                0x0000000000000000        0x0 /usr/lib/gcc/x86_64-linux-gnu/10/../../../x86_64-linux-gnu/libc.a(iofwide.o)
 .group         0x0000000000000000        0xc /usr/lib/gcc/x86_64-linux-gnu/10/../../../x86_64-linux-gnu/libc.a(getc.o)
 .data.rel.local.DW.ref.__gcc_personality_v0
                0x0000000000000000        0x8 /usr/lib/gcc/x86_64-linux-gnu/10/../../../x86_64-linux-gnu/libc.a(getc.o)
 .note.GNU-stack
                0x0000000000000000        0x0 /usr/lib/gcc/x86_64-linux-gnu/10/../../../x86_64-linux-gnu/libc.a(getc.o)
 .note.GNU-stack
                0x0000000000000000        0x0 /usr/lib/gcc/x86_64-linux-gnu/10/../../../x86_64-linux-gnu/libc.a(vasprintf.o)
 .note.GNU-stack
                0x0000000000000000        0x0 /usr/lib/gcc/x86_64-linux-gnu/10/../../../x86_64-linux-gnu/libc.a(libc_fatal.o)
 .note.GNU-stack
                0x0000000000000000        0x0 /usr/lib/gcc/x86_64-linux-gnu/10/../../../x86_64-linux-gnu/libc.a(vtables.o)
 .note.GNU-stack
                0x0000000000000000        0x0 /usr/lib/gcc/x86_64-linux-gnu/10/../../../x86_64-linux-gnu/libc.a(iofgets_u.o)
 .group         0x0000000000000000        0xc /usr/lib/gcc/x86_64-linux-gnu/10/../../../x86_64-linux-gnu/libc.a(fileops.o)
 .data.rel.local.DW.ref.__gcc_personality_v0
                0x0000000000000000        0x8 /usr/lib/gcc/x86_64-linux-gnu/10/../../../x86_64-linux-gnu/libc.a(fileops.o)
 .note.GNU-stack
                0x0000000000000000        0x0 /usr/lib/gcc/x86_64-linux-gnu/10/../../../x86_64-linux-gnu/libc.a(fileops.o)
 .note.GNU-stack
                0x0000000000000000        0x0 /usr/lib/gcc/x86_64-linux-gnu/10/../../../x86_64-linux-gnu/libc.a(genops.o)
 .note.GNU-stack
                0x0000000000000000        0x0 /usr/lib/gcc/x86_64-linux-gnu/10/../../../x86_64-linux-gnu/libc.a(stdfiles.o)
 .note.GNU-stack
                0x0000000000000000        0x0 /usr/lib/gcc/x86_64-linux-gnu/10/../../../x86_64-linux-gnu/libc.a(stdio.o)
 .note.GNU-stack
                0x0000000000000000        0x0 /usr/lib/gcc/x86_64-linux-gnu/10/../../../x86_64-linux-gnu/libc.a(strops.o)
 .note.GNU-stack
                0x0000000000000000        0x0 /usr/lib/gcc/x86_64-linux-gnu/10/../../../x86_64-linux-gnu/libc.a(alloca_cutoff.o)
 .note.GNU-stack
                0x0000000000000000        0x0 /usr/lib/gcc/x86_64-linux-gnu/10/../../../x86_64-linux-gnu/libc.a(libc-lowlevellock.o)
 .note.GNU-stack
                0x0000000000000000        0x0 /usr/lib/gcc/x86_64-linux-gnu/10/../../../x86_64-linux-gnu/libc.a(malloc.o)
 .note.GNU-stack
                0x0000000000000000        0x0 /usr/lib/gcc/x86_64-linux-gnu/10/../../../x86_64-linux-gnu/libc.a(morecore.o)
 .note.GNU-stack
                0x0000000000000000        0x0 /usr/lib/gcc/x86_64-linux-gnu/10/../../../x86_64-linux-gnu/libc.a(scratch_buffer_grow_preserve.o)
 .note.GNU-stack
                0x0000000000000000        0x0 /usr/lib/gcc/x86_64-linux-gnu/10/../../../x86_64-linux-gnu/libc.a(scratch_buffer_set_array_size.o)
 .note.GNU-stack
                0x0000000000000000        0x0 /usr/lib/gcc/x86_64-linux-gnu/10/../../../x86_64-linux-gnu/libc.a(strchr.o)
 .note.GNU-stack
                0x0000000000000000        0x0 /usr/lib/gcc/x86_64-linux-gnu/10/../../../x86_64-linux-gnu/libc.a(strcmp.o)
 .note.GNU-stack
                0x0000000000000000        0x0 /usr/lib/gcc/x86_64-linux-gnu/10/../../../x86_64-linux-gnu/libc.a(strcpy.o)
 .note.GNU-stack
                0x0000000000000000        0x0 /usr/lib/gcc/x86_64-linux-gnu/10/../../../x86_64-linux-gnu/libc.a(strcspn.o)
 .note.GNU-stack
                0x0000000000000000        0x0 /usr/lib/gcc/x86_64-linux-gnu/10/../../../x86_64-linux-gnu/libc.a(strdup.o)
 .note.GNU-stack
                0x0000000000000000        0x0 /usr/lib/gcc/x86_64-linux-gnu/10/../../../x86_64-linux-gnu/libc.a(_strerror.o)
 .note.GNU-stack
                0x0000000000000000        0x0 /usr/lib/gcc/x86_64-linux-gnu/10/../../../x86_64-linux-gnu/libc.a(strlen.o)
 .note.GNU-stack
                0x0000000000000000        0x0 /usr/lib/gcc/x86_64-linux-gnu/10/../../../x86_64-linux-gnu/libc.a(strnlen.o)
 .note.GNU-stack
                0x0000000000000000        0x0 /usr/lib/gcc/x86_64-linux-gnu/10/../../../x86_64-linux-gnu/libc.a(strncmp.o)
 .note.GNU-stack
                0x0000000000000000        0x0 /usr/lib/gcc/x86_64-linux-gnu/10/../../../x86_64-linux-gnu/libc.a(strstr.o)
 .note.GNU-stack
                0x0000000000000000        0x0 /usr/lib/gcc/x86_64-linux-gnu/10/../../../x86_64-linux-gnu/libc.a(memcmp.o)
 .note.GNU-stack
                0x0000000000000000        0x0 /usr/lib/gcc/x86_64-linux-gnu/10/../../../x86_64-linux-gnu/libc.a(memmove.o)
 .note.GNU-stack
                0x0000000000000000        0x0 /usr/lib/gcc/x86_64-linux-gnu/10/../../../x86_64-linux-gnu/libc.a(memset.o)
 .note.GNU-stack
                0x0000000000000000        0x0 /usr/lib/gcc/x86_64-linux-gnu/10/../../../x86_64-linux-gnu/libc.a(mempcpy.o)
 .note.GNU-stack
                0x0000000000000000        0x0 /usr/lib/gcc/x86_64-linux-gnu/10/../../../x86_64-linux-gnu/libc.a(stpcpy.o)
 .note.GNU-stack
                0x0000000000000000        0x0 /usr/lib/gcc/x86_64-linux-gnu/10/../../../x86_64-linux-gnu/libc.a(strcasecmp_l.o)
 .note.GNU-stack
                0x0000000000000000        0x0 /usr/lib/gcc/x86_64-linux-gnu/10/../../../x86_64-linux-gnu/libc.a(memcpy.o)
 .note.GNU-stack
                0x0000000000000000        0x0 /usr/lib/gcc/x86_64-linux-gnu/10/../../../x86_64-linux-gnu/libc.a(rawmemchr.o)
 .note.GNU-stack
                0x0000000000000000        0x0 /usr/lib/gcc/x86_64-linux-gnu/10/../../../x86_64-linux-gnu/libc.a(strchrnul.o)
 .note.GNU-stack
                0x0000000000000000        0x0 /usr/lib/gcc/x86_64-linux-gnu/10/../../../x86_64-linux-gnu/libc.a(strcmp-sse2.o)
 .note.GNU-stack
                0x0000000000000000        0x0 /usr/lib/gcc/x86_64-linux-gnu/10/../../../x86_64-linux-gnu/libc.a(strcmp-sse2-unaligned.o)
 .note.GNU-stack
                0x0000000000000000        0x0 /usr/lib/gcc/x86_64-linux-gnu/10/../../../x86_64-linux-gnu/libc.a(strcmp-ssse3.o)
 .note.GNU-stack
                0x0000000000000000        0x0 /usr/lib/gcc/x86_64-linux-gnu/10/../../../x86_64-linux-gnu/libc.a(strcmp-avx2.o)
 .note.GNU-stack
                0x0000000000000000        0x0 /usr/lib/gcc/x86_64-linux-gnu/10/../../../x86_64-linux-gnu/libc.a(strncmp-sse2.o)
 .note.GNU-stack
                0x0000000000000000        0x0 /usr/lib/gcc/x86_64-linux-gnu/10/../../../x86_64-linux-gnu/libc.a(strncmp-ssse3.o)
 .note.GNU-stack
                0x0000000000000000        0x0 /usr/lib/gcc/x86_64-linux-gnu/10/../../../x86_64-linux-gnu/libc.a(strncmp-sse4_2.o)
 .note.GNU-stack
                0x0000000000000000        0x0 /usr/lib/gcc/x86_64-linux-gnu/10/../../../x86_64-linux-gnu/libc.a(strncmp-avx2.o)
 .note.GNU-stack
                0x0000000000000000        0x0 /usr/lib/gcc/x86_64-linux-gnu/10/../../../x86_64-linux-gnu/libc.a(rawmemchr-sse2.o)
 .note.GNU-stack
                0x0000000000000000        0x0 /usr/lib/gcc/x86_64-linux-gnu/10/../../../x86_64-linux-gnu/libc.a(rawmemchr-avx2.o)
 .note.GNU-stack
                0x0000000000000000        0x0 /usr/lib/gcc/x86_64-linux-gnu/10/../../../x86_64-linux-gnu/libc.a(memcmp-sse2.o)
 .note.GNU-stack
                0x0000000000000000        0x0 /usr/lib/gcc/x86_64-linux-gnu/10/../../../x86_64-linux-gnu/libc.a(memcmp-avx2-movbe.o)
 .note.GNU-stack
                0x0000000000000000        0x0 /usr/lib/gcc/x86_64-linux-gnu/10/../../../x86_64-linux-gnu/libc.a(memcmp-sse4.o)
 .note.GNU-stack
                0x0000000000000000        0x0 /usr/lib/gcc/x86_64-linux-gnu/10/../../../x86_64-linux-gnu/libc.a(memcpy-ssse3.o)
 .note.GNU-stack
                0x0000000000000000        0x0 /usr/lib/gcc/x86_64-linux-gnu/10/../../../x86_64-linux-gnu/libc.a(memmove-ssse3.o)
 .note.GNU-stack
                0x0000000000000000        0x0 /usr/lib/gcc/x86_64-linux-gnu/10/../../../x86_64-linux-gnu/libc.a(memcpy-ssse3-back.o)
 .note.GNU-stack
                0x0000000000000000        0x0 /usr/lib/gcc/x86_64-linux-gnu/10/../../../x86_64-linux-gnu/libc.a(memmove-ssse3-back.o)
 .note.GNU-stack
                0x0000000000000000        0x0 /usr/lib/gcc/x86_64-linux-gnu/10/../../../x86_64-linux-gnu/libc.a(memmove-avx512-no-vzeroupper.o)
 .note.GNU-stack
                0x0000000000000000        0x0 /usr/lib/gcc/x86_64-linux-gnu/10/../../../x86_64-linux-gnu/libc.a(strcasecmp_l-sse2.o)
 .note.GNU-stack
                0x0000000000000000        0x0 /usr/lib/gcc/x86_64-linux-gnu/10/../../../x86_64-linux-gnu/libc.a(strcasecmp_l-ssse3.o)
 .note.GNU-stack
                0x0000000000000000        0x0 /usr/lib/gcc/x86_64-linux-gnu/10/../../../x86_64-linux-gnu/libc.a(strcasecmp_l-sse4_2.o)
 .note.GNU-stack
                0x0000000000000000        0x0 /usr/lib/gcc/x86_64-linux-gnu/10/../../../x86_64-linux-gnu/libc.a(strcasecmp_l-avx.o)
 .note.GNU-stack
                0x0000000000000000        0x0 /usr/lib/gcc/x86_64-linux-gnu/10/../../../x86_64-linux-gnu/libc.a(strchr-sse2.o)
 .note.GNU-stack
                0x0000000000000000        0x0 /usr/lib/gcc/x86_64-linux-gnu/10/../../../x86_64-linux-gnu/libc.a(strchrnul-sse2.o)
 .note.GNU-stack
                0x0000000000000000        0x0 /usr/lib/gcc/x86_64-linux-gnu/10/../../../x86_64-linux-gnu/libc.a(strchr-avx2.o)
 .note.GNU-stack
                0x0000000000000000        0x0 /usr/lib/gcc/x86_64-linux-gnu/10/../../../x86_64-linux-gnu/libc.a(strchrnul-avx2.o)
 .note.GNU-stack
                0x0000000000000000        0x0 /usr/lib/gcc/x86_64-linux-gnu/10/../../../x86_64-linux-gnu/libc.a(strlen-sse2.o)
 .note.GNU-stack
                0x0000000000000000        0x0 /usr/lib/gcc/x86_64-linux-gnu/10/../../../x86_64-linux-gnu/libc.a(strnlen-sse2.o)
 .note.GNU-stack
                0x0000000000000000        0x0 /usr/lib/gcc/x86_64-linux-gnu/10/../../../x86_64-linux-gnu/libc.a(strlen-avx2.o)
 .note.GNU-stack
                0x0000000000000000        0x0 /usr/lib/gcc/x86_64-linux-gnu/10/../../../x86_64-linux-gnu/libc.a(strnlen-avx2.o)
 .note.GNU-stack
                0x0000000000000000        0x0 /usr/lib/gcc/x86_64-linux-gnu/10/../../../x86_64-linux-gnu/libc.a(strcpy-avx2.o)
 .note.GNU-stack
                0x0000000000000000        0x0 /usr/lib/gcc/x86_64-linux-gnu/10/../../../x86_64-linux-gnu/libc.a(strcpy-sse2.o)
 .note.GNU-stack
                0x0000000000000000        0x0 /usr/lib/gcc/x86_64-linux-gnu/10/../../../x86_64-linux-gnu/libc.a(stpcpy-sse2.o)
 .note.GNU-stack
                0x0000000000000000        0x0 /usr/lib/gcc/x86_64-linux-gnu/10/../../../x86_64-linux-gnu/libc.a(strcpy-ssse3.o)
 .note.GNU-stack
                0x0000000000000000        0x0 /usr/lib/gcc/x86_64-linux-gnu/10/../../../x86_64-linux-gnu/libc.a(stpcpy-ssse3.o)
 .note.GNU-stack
                0x0000000000000000        0x0 /usr/lib/gcc/x86_64-linux-gnu/10/../../../x86_64-linux-gnu/libc.a(strcpy-sse2-unaligned.o)
 .note.GNU-stack
                0x0000000000000000        0x0 /usr/lib/gcc/x86_64-linux-gnu/10/../../../x86_64-linux-gnu/libc.a(stpcpy-sse2-unaligned.o)
 .note.GNU-stack
                0x0000000000000000        0x0 /usr/lib/gcc/x86_64-linux-gnu/10/../../../x86_64-linux-gnu/libc.a(stpcpy-avx2.o)
 .note.GNU-stack
                0x0000000000000000        0x0 /usr/lib/gcc/x86_64-linux-gnu/10/../../../x86_64-linux-gnu/libc.a(strchr-sse2-no-bsf.o)
 .note.GNU-stack
                0x0000000000000000        0x0 /usr/lib/gcc/x86_64-linux-gnu/10/../../../x86_64-linux-gnu/libc.a(memcmp-ssse3.o)
 .note.GNU-stack
                0x0000000000000000        0x0 /usr/lib/gcc/x86_64-linux-gnu/10/../../../x86_64-linux-gnu/libc.a(strstr-sse2-unaligned.o)
 .note.GNU-stack
                0x0000000000000000        0x0 /usr/lib/gcc/x86_64-linux-gnu/10/../../../x86_64-linux-gnu/libc.a(strcspn-sse2.o)
 .note.GNU-stack
                0x0000000000000000        0x0 /usr/lib/gcc/x86_64-linux-gnu/10/../../../x86_64-linux-gnu/libc.a(strcspn-c.o)
 .note.GNU-stack
                0x0000000000000000        0x0 /usr/lib/gcc/x86_64-linux-gnu/10/../../../x86_64-linux-gnu/libc.a(varshift.o)
 .note.GNU-stack
                0x0000000000000000        0x0 /usr/lib/gcc/x86_64-linux-gnu/10/../../../x86_64-linux-gnu/libc.a(memset-avx512-no-vzeroupper.o)
 .note.GNU-stack
                0x0000000000000000        0x0 /usr/lib/gcc/x86_64-linux-gnu/10/../../../x86_64-linux-gnu/libc.a(memmove-sse2-unaligned-erms.o)
 .note.GNU-stack
                0x0000000000000000        0x0 /usr/lib/gcc/x86_64-linux-gnu/10/../../../x86_64-linux-gnu/libc.a(memmove-avx-unaligned-erms.o)
 .note.GNU-stack
                0x0000000000000000        0x0 /usr/lib/gcc/x86_64-linux-gnu/10/../../../x86_64-linux-gnu/libc.a(memmove-avx512-unaligned-erms.o)
 .note.GNU-stack
                0x0000000000000000        0x0 /usr/lib/gcc/x86_64-linux-gnu/10/../../../x86_64-linux-gnu/libc.a(memset-sse2-unaligned-erms.o)
 .note.GNU-stack
                0x0000000000000000        0x0 /usr/lib/gcc/x86_64-linux-gnu/10/../../../x86_64-linux-gnu/libc.a(memset-avx2-unaligned-erms.o)
 .note.GNU-stack
                0x0000000000000000        0x0 /usr/lib/gcc/x86_64-linux-gnu/10/../../../x86_64-linux-gnu/libc.a(memset-avx512-unaligned-erms.o)
 .note.GNU-stack
                0x0000000000000000        0x0 /usr/lib/gcc/x86_64-linux-gnu/10/../../../x86_64-linux-gnu/libc.a(cacheinfo.o)
 .note.GNU-stack
                0x0000000000000000        0x0 /usr/lib/gcc/x86_64-linux-gnu/10/../../../x86_64-linux-gnu/libc.a(strcasecmp_l-nonascii.o)
 .note.GNU-stack
                0x0000000000000000        0x0 /usr/lib/gcc/x86_64-linux-gnu/10/../../../x86_64-linux-gnu/libc.a(wmempcpy.o)
 .note.GNU-stack
                0x0000000000000000        0x0 /usr/lib/gcc/x86_64-linux-gnu/10/../../../x86_64-linux-gnu/libc.a(wcrtomb.o)
 .note.GNU-stack
                0x0000000000000000        0x0 /usr/lib/gcc/x86_64-linux-gnu/10/../../../x86_64-linux-gnu/libc.a(mbsrtowcs.o)
 .note.GNU-stack
                0x0000000000000000        0x0 /usr/lib/gcc/x86_64-linux-gnu/10/../../../x86_64-linux-gnu/libc.a(wcsrtombs.o)
 .note.GNU-stack
                0x0000000000000000        0x0 /usr/lib/gcc/x86_64-linux-gnu/10/../../../x86_64-linux-gnu/libc.a(wcsnlen.o)
 .note.GNU-stack
                0x0000000000000000        0x0 /usr/lib/gcc/x86_64-linux-gnu/10/../../../x86_64-linux-gnu/libc.a(wcsmbsload.o)
 .note.GNU-stack
                0x0000000000000000        0x0 /usr/lib/gcc/x86_64-linux-gnu/10/../../../x86_64-linux-gnu/libc.a(mbsrtowcs_l.o)
 .note.GNU-stack
                0x0000000000000000        0x0 /usr/lib/gcc/x86_64-linux-gnu/10/../../../x86_64-linux-gnu/libc.a(wcsnlen-sse4_1.o)
 .note.GNU-stack
                0x0000000000000000        0x0 /usr/lib/gcc/x86_64-linux-gnu/10/../../../x86_64-linux-gnu/libc.a(wcsnlen-c.o)
 .note.GNU-stack
                0x0000000000000000        0x0 /usr/lib/gcc/x86_64-linux-gnu/10/../../../x86_64-linux-gnu/libc.a(wcsnlen-avx2.o)
 .note.GNU-stack
                0x0000000000000000        0x0 /usr/lib/gcc/x86_64-linux-gnu/10/../../../x86_64-linux-gnu/libc.a(_exit.o)
 .note.GNU-stack
                0x0000000000000000        0x0 /usr/lib/gcc/x86_64-linux-gnu/10/../../../x86_64-linux-gnu/libc.a(sysconf.o)
 .note.GNU-stack
                0x0000000000000000        0x0 /usr/lib/gcc/x86_64-linux-gnu/10/../../../x86_64-linux-gnu/libc.a(sched_yield.o)
 .note.GNU-stack
                0x0000000000000000        0x0 /usr/lib/gcc/x86_64-linux-gnu/10/../../../x86_64-linux-gnu/libc.a(get_child_max.o)
 .note.GNU-stack
                0x0000000000000000        0x0 /usr/lib/gcc/x86_64-linux-gnu/10/../../../x86_64-linux-gnu/libc.a(environ.o)
 .note.GNU-stack
                0x0000000000000000        0x0 /usr/lib/gcc/x86_64-linux-gnu/10/../../../x86_64-linux-gnu/libc.a(xstat.o)
 .note.GNU-stack
                0x0000000000000000        0x0 /usr/lib/gcc/x86_64-linux-gnu/10/../../../x86_64-linux-gnu/libc.a(fxstat.o)
 .note.GNU-stack
                0x0000000000000000        0x0 /usr/lib/gcc/x86_64-linux-gnu/10/../../../x86_64-linux-gnu/libc.a(open64.o)
 .note.GNU-stack
                0x0000000000000000        0x0 /usr/lib/gcc/x86_64-linux-gnu/10/../../../x86_64-linux-gnu/libc.a(read.o)
 .note.GNU-stack
                0x0000000000000000        0x0 /usr/lib/gcc/x86_64-linux-gnu/10/../../../x86_64-linux-gnu/libc.a(write.o)
 .note.GNU-stack
                0x0000000000000000        0x0 /usr/lib/gcc/x86_64-linux-gnu/10/../../../x86_64-linux-gnu/libc.a(lseek64.o)
 .note.GNU-stack
                0x0000000000000000        0x0 /usr/lib/gcc/x86_64-linux-gnu/10/../../../x86_64-linux-gnu/libc.a(getcwd.o)
 .note.GNU-stack
                0x0000000000000000        0x0 /usr/lib/gcc/x86_64-linux-gnu/10/../../../x86_64-linux-gnu/libc.a(close_nocancel.o)
 .note.GNU-stack
                0x0000000000000000        0x0 /usr/lib/gcc/x86_64-linux-gnu/10/../../../x86_64-linux-gnu/libc.a(fcntl_nocancel.o)
 .note.GNU-stack
                0x0000000000000000        0x0 /usr/lib/gcc/x86_64-linux-gnu/10/../../../x86_64-linux-gnu/libc.a(open64_nocancel.o)
 .note.GNU-stack
                0x0000000000000000        0x0 /usr/lib/gcc/x86_64-linux-gnu/10/../../../x86_64-linux-gnu/libc.a(openat64_nocancel.o)
 .note.GNU-stack
                0x0000000000000000        0x0 /usr/lib/gcc/x86_64-linux-gnu/10/../../../x86_64-linux-gnu/libc.a(read_nocancel.o)
 .note.GNU-stack
                0x0000000000000000        0x0 /usr/lib/gcc/x86_64-linux-gnu/10/../../../x86_64-linux-gnu/libc.a(write_nocancel.o)
 .note.GNU-stack
                0x0000000000000000        0x0 /usr/lib/gcc/x86_64-linux-gnu/10/../../../x86_64-linux-gnu/libc.a(getrlimit64.o)
 .note.GNU-stack
                0x0000000000000000        0x0 /usr/lib/gcc/x86_64-linux-gnu/10/../../../x86_64-linux-gnu/libc.a(sbrk.o)
 .note.GNU-stack
                0x0000000000000000        0x0 /usr/lib/gcc/x86_64-linux-gnu/10/../../../x86_64-linux-gnu/libc.a(getpagesize.o)
 .note.GNU-stack
                0x0000000000000000        0x0 /usr/lib/gcc/x86_64-linux-gnu/10/../../../x86_64-linux-gnu/libc.a(getdtsz.o)
 .note.GNU-stack
                0x0000000000000000        0x0 /usr/lib/gcc/x86_64-linux-gnu/10/../../../x86_64-linux-gnu/libc.a(mmap64.o)
 .note.GNU-stack
                0x0000000000000000        0x0 /usr/lib/gcc/x86_64-linux-gnu/10/../../../x86_64-linux-gnu/libc.a(munmap.o)
 .note.GNU-stack
                0x0000000000000000        0x0 /usr/lib/gcc/x86_64-linux-gnu/10/../../../x86_64-linux-gnu/libc.a(mprotect.o)
 .note.GNU-stack
                0x0000000000000000        0x0 /usr/lib/gcc/x86_64-linux-gnu/10/../../../x86_64-linux-gnu/libc.a(madvise.o)
 .note.GNU-stack
                0x0000000000000000        0x0 /usr/lib/gcc/x86_64-linux-gnu/10/../../../x86_64-linux-gnu/libc.a(tsearch.o)
 .note.GNU-stack
                0x0000000000000000        0x0 /usr/lib/gcc/x86_64-linux-gnu/10/../../../x86_64-linux-gnu/libc.a(getsysstats.o)
 .note.GNU-stack
                0x0000000000000000        0x0 /usr/lib/gcc/x86_64-linux-gnu/10/../../../x86_64-linux-gnu/libc.a(getclktck.o)
 .note.GNU-stack
                0x0000000000000000        0x0 /usr/lib/gcc/x86_64-linux-gnu/10/../../../x86_64-linux-gnu/libc.a(init-misc.o)
 .note.GNU-stack
                0x0000000000000000        0x0 /usr/lib/gcc/x86_64-linux-gnu/10/../../../x86_64-linux-gnu/libc.a(mremap.o)
 .note.GNU-stack
                0x0000000000000000        0x0 /usr/lib/gcc/x86_64-linux-gnu/10/../../../x86_64-linux-gnu/libc.a(sysinfo.o)
 .note.GNU-stack
                0x0000000000000000        0x0 /usr/lib/gcc/x86_64-linux-gnu/10/../../../x86_64-linux-gnu/libc.a(wctrans.o)
 .note.GNU-stack
                0x0000000000000000        0x0 /usr/lib/gcc/x86_64-linux-gnu/10/../../../x86_64-linux-gnu/libc.a(towctrans.o)
 .note.GNU-stack
                0x0000000000000000        0x0 /usr/lib/gcc/x86_64-linux-gnu/10/../../../x86_64-linux-gnu/libc.a(chk_fail.o)
 .note.GNU-stack
                0x0000000000000000        0x0 /usr/lib/gcc/x86_64-linux-gnu/10/../../../x86_64-linux-gnu/libc.a(readonly-area.o)
 .note.GNU-stack
                0x0000000000000000        0x0 /usr/lib/gcc/x86_64-linux-gnu/10/../../../x86_64-linux-gnu/libc.a(stack_chk_fail.o)
 .note.GNU-stack
                0x0000000000000000        0x0 /usr/lib/gcc/x86_64-linux-gnu/10/../../../x86_64-linux-gnu/libc.a(fortify_fail.o)
 .note.GNU-stack
                0x0000000000000000        0x0 /usr/lib/gcc/x86_64-linux-gnu/10/../../../x86_64-linux-gnu/libc.a(dl-debug.o)
 .note.GNU-stack
                0x0000000000000000        0x0 /usr/lib/gcc/x86_64-linux-gnu/10/../../../x86_64-linux-gnu/libc.a(dl-tls.o)
 .note.GNU-stack
                0x0000000000000000        0x0 /usr/lib/gcc/x86_64-linux-gnu/10/../../../x86_64-linux-gnu/libc.a(dl-tunables.o)
 .note.GNU-stack
                0x0000000000000000        0x0 /usr/lib/gcc/x86_64-linux-gnu/10/../../../x86_64-linux-gnu/libc.a(dl-support.o)
 .note.GNU-stack
                0x0000000000000000        0x0 /usr/lib/gcc/x86_64-linux-gnu/10/../../../x86_64-linux-gnu/libc.a(enbl-secure.o)
 .note.GNU-stack
                0x0000000000000000        0x0 /usr/lib/gcc/x86_64-linux-gnu/10/../../../x86_64-linux-gnu/libc.a(dl-profstub.o)
 .note.GNU-stack
                0x0000000000000000        0x0 /usr/lib/gcc/x86_64-linux-gnu/10/../../../x86_64-linux-gnu/libc.a(dl-sysdep.o)
 .note.GNU-stack
                0x0000000000000000        0x0 /usr/lib/gcc/x86_64-linux-gnu/10/../../../x86_64-linux-gnu/libc.a(dl-error.o)
 .note.GNU-stack
                0x0000000000000000        0x0 /usr/lib/gcc/x86_64-linux-gnu/10/../../../x86_64-linux-gnu/libc.a(init-first.o)
 .note.GNU-stack
                0x0000000000000000        0x0 /usr/lib/gcc/x86_64-linux-gnu/10/../../../x86_64-linux-gnu/libc.a(gconv_open.o)
 .note.GNU-stack
                0x0000000000000000        0x0 /usr/lib/gcc/x86_64-linux-gnu/10/../../../x86_64-linux-gnu/libc.a(gconv.o)
 .note.GNU-stack
                0x0000000000000000        0x0 /usr/lib/gcc/x86_64-linux-gnu/10/../../../x86_64-linux-gnu/libc.a(gconv_close.o)
 .note.GNU-stack
                0x0000000000000000        0x0 /usr/lib/gcc/x86_64-linux-gnu/10/../../../x86_64-linux-gnu/libc.a(gconv_db.o)
 .note.GNU-stack
                0x0000000000000000        0x0 /usr/lib/gcc/x86_64-linux-gnu/10/../../../x86_64-linux-gnu/libc.a(gconv_conf.o)
 .note.GNU-stack
                0x0000000000000000        0x0 /usr/lib/gcc/x86_64-linux-gnu/10/../../../x86_64-linux-gnu/libc.a(gconv_builtin.o)
 .note.GNU-stack
                0x0000000000000000        0x0 /usr/lib/gcc/x86_64-linux-gnu/10/../../../x86_64-linux-gnu/libc.a(gconv_simple.o)
 .note.GNU-stack
                0x0000000000000000        0x0 /usr/lib/gcc/x86_64-linux-gnu/10/../../../x86_64-linux-gnu/libc.a(gconv_trans.o)
 .note.GNU-stack
                0x0000000000000000        0x0 /usr/lib/gcc/x86_64-linux-gnu/10/../../../x86_64-linux-gnu/libc.a(gconv_cache.o)
 .note.GNU-stack
                0x0000000000000000        0x0 /usr/lib/gcc/x86_64-linux-gnu/10/../../../x86_64-linux-gnu/libc.a(gconv_dl.o)
 .note.GNU-stack
                0x0000000000000000        0x0 /usr/lib/gcc/x86_64-linux-gnu/10/../../../x86_64-linux-gnu/libc.a(gconv_charset.o)
 .note.GNU-stack
                0x0000000000000000        0x0 /usr/lib/gcc/x86_64-linux-gnu/10/../../../x86_64-linux-gnu/libc.a(setlocale.o)
 .note.GNU-stack
                0x0000000000000000        0x0 /usr/lib/gcc/x86_64-linux-gnu/10/../../../x86_64-linux-gnu/libc.a(findlocale.o)
 .note.GNU-stack
                0x0000000000000000        0x0 /usr/lib/gcc/x86_64-linux-gnu/10/../../../x86_64-linux-gnu/libc.a(loadlocale.o)
 .note.GNU-stack
                0x0000000000000000        0x0 /usr/lib/gcc/x86_64-linux-gnu/10/../../../x86_64-linux-gnu/libc.a(loadarchive.o)
 .note.GNU-stack
                0x0000000000000000        0x0 /usr/lib/gcc/x86_64-linux-gnu/10/../../../x86_64-linux-gnu/libc.a(lc-ctype.o)
 .note.GNU-stack
                0x0000000000000000        0x0 /usr/lib/gcc/x86_64-linux-gnu/10/../../../x86_64-linux-gnu/libc.a(lc-numeric.o)
 .note.GNU-stack
                0x0000000000000000        0x0 /usr/lib/gcc/x86_64-linux-gnu/10/../../../x86_64-linux-gnu/libc.a(C-ctype.o)
 .note.GNU-stack
                0x0000000000000000        0x0 /usr/lib/gcc/x86_64-linux-gnu/10/../../../x86_64-linux-gnu/libc.a(SYS_libc.o)
 .note.GNU-stack
                0x0000000000000000        0x0 /usr/lib/gcc/x86_64-linux-gnu/10/../../../x86_64-linux-gnu/libc.a(C_name.o)
 .note.GNU-stack
                0x0000000000000000        0x0 /usr/lib/gcc/x86_64-linux-gnu/10/../../../x86_64-linux-gnu/libc.a(xlocale.o)
 .note.GNU-stack
                0x0000000000000000        0x0 /usr/lib/gcc/x86_64-linux-gnu/10/../../../x86_64-linux-gnu/libc.a(localename.o)
 .note.GNU-stack
                0x0000000000000000        0x0 /usr/lib/gcc/x86_64-linux-gnu/10/../../../x86_64-linux-gnu/libc.a(global-locale.o)
 .note.GNU-stack
                0x0000000000000000        0x0 /usr/lib/gcc/x86_64-linux-gnu/10/../../../x86_64-linux-gnu/libc.a(ctype-info.o)
 .note.GNU-stack
                0x0000000000000000        0x0 /usr/lib/gcc/x86_64-linux-gnu/10/../../../x86_64-linux-gnu/libc.a(setfpucw.o)
 .note.GNU-stack
                0x0000000000000000        0x0 /usr/lib/gcc/x86_64-linux-gnu/10/../../../x86_64-linux-gnu/libc.a(fpu_control.o)
 .note.GNU-stack
                0x0000000000000000        0x0 /usr/lib/gcc/x86_64-linux-gnu/10/../../../x86_64-linux-gnu/libc.a(setjmp.o)
 .note.GNU-stack
                0x0000000000000000        0x0 /usr/lib/gcc/x86_64-linux-gnu/10/../../../x86_64-linux-gnu/libc.a(sigjmp.o)
 .note.GNU-stack
                0x0000000000000000        0x0 /usr/lib/gcc/x86_64-linux-gnu/10/../../../x86_64-linux-gnu/libc.a(__longjmp.o)
 .note.GNU-stack
                0x0000000000000000        0x0 /usr/lib/gcc/x86_64-linux-gnu/10/../../../x86_64-linux-gnu/libc.a(sigaction.o)
 .note.GNU-stack
                0x0000000000000000        0x0 /usr/lib/gcc/x86_64-linux-gnu/10/../../../x86_64-linux-gnu/libc.a(sigprocmask.o)
 .note.GNU-stack
                0x0000000000000000        0x0 /usr/lib/gcc/x86_64-linux-gnu/10/../../../x86_64-linux-gnu/libc.a(qsort.o)
 .note.GNU-stack
                0x0000000000000000        0x0 /usr/lib/gcc/x86_64-linux-gnu/10/../../../x86_64-linux-gnu/libc.a(setenv.o)
 .note.GNU-stack
                0x0000000000000000        0x0 /usr/lib/gcc/x86_64-linux-gnu/10/../../../x86_64-linux-gnu/libc.a(secure-getenv.o)
 .note.GNU-stack
                0x0000000000000000        0x0 /usr/lib/gcc/x86_64-linux-gnu/10/../../../x86_64-linux-gnu/libc.a(strtol.o)
 .note.GNU-stack
                0x0000000000000000        0x0 /usr/lib/gcc/x86_64-linux-gnu/10/../../../x86_64-linux-gnu/libc.a(strtol_l.o)
 .note.GNU-stack
                0x0000000000000000        0x0 /usr/lib/gcc/x86_64-linux-gnu/10/../../../x86_64-linux-gnu/libc.a(_itoa.o)
 .note.GNU-stack
                0x0000000000000000        0x0 /usr/lib/gcc/x86_64-linux-gnu/10/../../../x86_64-linux-gnu/libc.a(itoa-digits.o)
 .note.GNU-stack
                0x0000000000000000        0x0 /usr/lib/gcc/x86_64-linux-gnu/10/../../../x86_64-linux-gnu/libc.a(itoa-udigits.o)
 .note.GNU-stack
                0x0000000000000000        0x0 /usr/lib/gcc/x86_64-linux-gnu/10/../../../x86_64-linux-gnu/libc.a(printf_fp.o)
 .note.GNU-stack
                0x0000000000000000        0x0 /usr/lib/gcc/x86_64-linux-gnu/10/../../../x86_64-linux-gnu/libc.a(reg-printf.o)
 .note.GNU-stack
                0x0000000000000000        0x0 /usr/lib/gcc/x86_64-linux-gnu/10/../../../x86_64-linux-gnu/libc.a(printf_fphex.o)
 .note.GNU-stack
                0x0000000000000000        0x0 /usr/lib/gcc/x86_64-linux-gnu/10/../../../x86_64-linux-gnu/libc.a(reg-modifier.o)
 .note.GNU-stack
                0x0000000000000000        0x0 /usr/lib/gcc/x86_64-linux-gnu/10/../../../x86_64-linux-gnu/libc.a(reg-type.o)
 .note.GNU-stack
                0x0000000000000000        0x0 /usr/lib/gcc/x86_64-linux-gnu/10/../../../x86_64-linux-gnu/libc.a(funlockfile.o)
 .note.GNU-stack
                0x0000000000000000        0x0 /usr/lib/gcc/x86_64-linux-gnu/10/../../../x86_64-linux-gnu/libc.a(vfwprintf-internal.o)
 .gnu.warning.sys_errlist
                0x0000000000000000        0x0 /usr/lib/gcc/x86_64-linux-gnu/10/../../../x86_64-linux-gnu/libc.a(errlist.o)
 .gnu.warning.sys_nerr
                0x0000000000000000        0x0 /usr/lib/gcc/x86_64-linux-gnu/10/../../../x86_64-linux-gnu/libc.a(errlist.o)
 .note.GNU-stack
                0x0000000000000000        0x0 /usr/lib/gcc/x86_64-linux-gnu/10/../../../x86_64-linux-gnu/libc.a(errlist.o)
 .note.GNU-stack
                0x0000000000000000        0x0 /usr/lib/gcc/x86_64-linux-gnu/10/../../../x86_64-linux-gnu/libc.a(printf-parsewc.o)
 .note.GNU-stack
                0x0000000000000000        0x0 /usr/lib/gcc/x86_64-linux-gnu/10/../../../x86_64-linux-gnu/libc.a(filedoalloc.o)
 .group         0x0000000000000000        0xc /usr/lib/gcc/x86_64-linux-gnu/10/../../../x86_64-linux-gnu/libc.a(iofputs.o)
 .data.rel.local.DW.ref.__gcc_personality_v0
                0x0000000000000000        0x8 /usr/lib/gcc/x86_64-linux-gnu/10/../../../x86_64-linux-gnu/libc.a(iofputs.o)
 .note.GNU-stack
                0x0000000000000000        0x0 /usr/lib/gcc/x86_64-linux-gnu/10/../../../x86_64-linux-gnu/libc.a(iofputs.o)
 .note.GNU-stack
                0x0000000000000000        0x0 /usr/lib/gcc/x86_64-linux-gnu/10/../../../x86_64-linux-gnu/libc.a(wfiledoalloc.o)
 .group         0x0000000000000000        0xc /usr/lib/gcc/x86_64-linux-gnu/10/../../../x86_64-linux-gnu/libc.a(iofwrite.o)
 .data.rel.local.DW.ref.__gcc_personality_v0
                0x0000000000000000        0x8 /usr/lib/gcc/x86_64-linux-gnu/10/../../../x86_64-linux-gnu/libc.a(iofwrite.o)
 .note.GNU-stack
                0x0000000000000000        0x0 /usr/lib/gcc/x86_64-linux-gnu/10/../../../x86_64-linux-gnu/libc.a(iofwrite.o)
 .group         0x0000000000000000        0xc /usr/lib/gcc/x86_64-linux-gnu/10/../../../x86_64-linux-gnu/libc.a(iogetdelim.o)
 .data.rel.local.DW.ref.__gcc_personality_v0
                0x0000000000000000        0x8 /usr/lib/gcc/x86_64-linux-gnu/10/../../../x86_64-linux-gnu/libc.a(iogetdelim.o)
 .note.GNU-stack
                0x0000000000000000        0x0 /usr/lib/gcc/x86_64-linux-gnu/10/../../../x86_64-linux-gnu/libc.a(iogetdelim.o)
 .note.GNU-stack
                0x0000000000000000        0x0 /usr/lib/gcc/x86_64-linux-gnu/10/../../../x86_64-linux-gnu/libc.a(iogetline.o)
 .note.GNU-stack
                0x0000000000000000        0x0 /usr/lib/gcc/x86_64-linux-gnu/10/../../../x86_64-linux-gnu/libc.a(iowpadn.o)
 .note.GNU-stack
                0x0000000000000000        0x0 /usr/lib/gcc/x86_64-linux-gnu/10/../../../x86_64-linux-gnu/libc.a(wgenops.o)
 .note.GNU-stack
                0x0000000000000000        0x0 /usr/lib/gcc/x86_64-linux-gnu/10/../../../x86_64-linux-gnu/libc.a(libc-cancellation.o)
 .note.GNU-stack
                0x0000000000000000        0x0 /usr/lib/gcc/x86_64-linux-gnu/10/../../../x86_64-linux-gnu/libc.a(strndup.o)
 .note.GNU-stack
                0x0000000000000000        0x0 /usr/lib/gcc/x86_64-linux-gnu/10/../../../x86_64-linux-gnu/libc.a(strrchr.o)
 .note.GNU-stack
                0x0000000000000000        0x0 /usr/lib/gcc/x86_64-linux-gnu/10/../../../x86_64-linux-gnu/libc.a(strtok_r.o)
 .note.GNU-stack
                0x0000000000000000        0x0 /usr/lib/gcc/x86_64-linux-gnu/10/../../../x86_64-linux-gnu/libc.a(memchr.o)
 .note.GNU-stack
                0x0000000000000000        0x0 /usr/lib/gcc/x86_64-linux-gnu/10/../../../x86_64-linux-gnu/libc.a(memmem.o)
 .note.GNU-stack
                0x0000000000000000        0x0 /usr/lib/gcc/x86_64-linux-gnu/10/../../../x86_64-linux-gnu/libc.a(argz-ctsep.o)
 .note.GNU-stack
                0x0000000000000000        0x0 /usr/lib/gcc/x86_64-linux-gnu/10/../../../x86_64-linux-gnu/libc.a(argz-addsep.o)
 .note.GNU-stack
                0x0000000000000000        0x0 /usr/lib/gcc/x86_64-linux-gnu/10/../../../x86_64-linux-gnu/libc.a(memchr-sse2.o)
 .note.GNU-stack
                0x0000000000000000        0x0 /usr/lib/gcc/x86_64-linux-gnu/10/../../../x86_64-linux-gnu/libc.a(memchr-avx2.o)
 .note.GNU-stack
                0x0000000000000000        0x0 /usr/lib/gcc/x86_64-linux-gnu/10/../../../x86_64-linux-gnu/libc.a(strrchr-sse2.o)
 .note.GNU-stack
                0x0000000000000000        0x0 /usr/lib/gcc/x86_64-linux-gnu/10/../../../x86_64-linux-gnu/libc.a(strrchr-avx2.o)
 .note.GNU-stack
                0x0000000000000000        0x0 /usr/lib/gcc/x86_64-linux-gnu/10/../../../x86_64-linux-gnu/libc.a(wcslen.o)
 .note.GNU-stack
                0x0000000000000000        0x0 /usr/lib/gcc/x86_64-linux-gnu/10/../../../x86_64-linux-gnu/libc.a(wmemchr.o)
 .note.GNU-stack
                0x0000000000000000        0x0 /usr/lib/gcc/x86_64-linux-gnu/10/../../../x86_64-linux-gnu/libc.a(wmemcpy.o)
 .note.GNU-stack
                0x0000000000000000        0x0 /usr/lib/gcc/x86_64-linux-gnu/10/../../../x86_64-linux-gnu/libc.a(wmemmove.o)
 .note.GNU-stack
                0x0000000000000000        0x0 /usr/lib/gcc/x86_64-linux-gnu/10/../../../x86_64-linux-gnu/libc.a(wmemset.o)
 .note.GNU-stack
                0x0000000000000000        0x0 /usr/lib/gcc/x86_64-linux-gnu/10/../../../x86_64-linux-gnu/libc.a(btowc.o)
 .note.GNU-stack
                0x0000000000000000        0x0 /usr/lib/gcc/x86_64-linux-gnu/10/../../../x86_64-linux-gnu/libc.a(wcschrnul.o)
 .note.GNU-stack
                0x0000000000000000        0x0 /usr/lib/gcc/x86_64-linux-gnu/10/../../../x86_64-linux-gnu/libc.a(wmemchr-sse2.o)
 .note.GNU-stack
                0x0000000000000000        0x0 /usr/lib/gcc/x86_64-linux-gnu/10/../../../x86_64-linux-gnu/libc.a(wmemchr-avx2.o)
 .note.GNU-stack
                0x0000000000000000        0x0 /usr/lib/gcc/x86_64-linux-gnu/10/../../../x86_64-linux-gnu/libc.a(wcslen-sse2.o)
 .note.GNU-stack
                0x0000000000000000        0x0 /usr/lib/gcc/x86_64-linux-gnu/10/../../../x86_64-linux-gnu/libc.a(wcslen-avx2.o)
 .note.GNU-stack
                0x0000000000000000        0x0 /usr/lib/gcc/x86_64-linux-gnu/10/../../../x86_64-linux-gnu/libc.a(clock_gettime.o)
 .note.GNU-stack
                0x0000000000000000        0x0 /usr/lib/gcc/x86_64-linux-gnu/10/../../../x86_64-linux-gnu/libc.a(opendir.o)
 .note.GNU-stack
                0x0000000000000000        0x0 /usr/lib/gcc/x86_64-linux-gnu/10/../../../x86_64-linux-gnu/libc.a(closedir.o)
 .note.GNU-stack
                0x0000000000000000        0x0 /usr/lib/gcc/x86_64-linux-gnu/10/../../../x86_64-linux-gnu/libc.a(rewinddir.o)
 .note.GNU-stack
                0x0000000000000000        0x0 /usr/lib/gcc/x86_64-linux-gnu/10/../../../x86_64-linux-gnu/libc.a(readdir64.o)
 .note.GNU-stack
                0x0000000000000000        0x0 /usr/lib/gcc/x86_64-linux-gnu/10/../../../x86_64-linux-gnu/libc.a(fdopendir.o)
 .note.GNU-stack
                0x0000000000000000        0x0 /usr/lib/gcc/x86_64-linux-gnu/10/../../../x86_64-linux-gnu/libc.a(uname.o)
 .note.GNU-stack
                0x0000000000000000        0x0 /usr/lib/gcc/x86_64-linux-gnu/10/../../../x86_64-linux-gnu/libc.a(getuid.o)
 .note.GNU-stack
                0x0000000000000000        0x0 /usr/lib/gcc/x86_64-linux-gnu/10/../../../x86_64-linux-gnu/libc.a(geteuid.o)
 .note.GNU-stack
                0x0000000000000000        0x0 /usr/lib/gcc/x86_64-linux-gnu/10/../../../x86_64-linux-gnu/libc.a(getgid.o)
 .note.GNU-stack
                0x0000000000000000        0x0 /usr/lib/gcc/x86_64-linux-gnu/10/../../../x86_64-linux-gnu/libc.a(getegid.o)
 .note.GNU-stack
                0x0000000000000000        0x0 /usr/lib/gcc/x86_64-linux-gnu/10/../../../x86_64-linux-gnu/libc.a(lxstat.o)
 .note.GNU-stack
                0x0000000000000000        0x0 /usr/lib/gcc/x86_64-linux-gnu/10/../../../x86_64-linux-gnu/libc.a(fxstatat.o)
 .note.GNU-stack
                0x0000000000000000        0x0 /usr/lib/gcc/x86_64-linux-gnu/10/../../../x86_64-linux-gnu/libc.a(isatty.o)
 .note.GNU-stack
                0x0000000000000000        0x0 /usr/lib/gcc/x86_64-linux-gnu/10/../../../x86_64-linux-gnu/libc.a(tcgetattr.o)
 .note.GNU-stack
                0x0000000000000000        0x0 /usr/lib/gcc/x86_64-linux-gnu/10/../../../x86_64-linux-gnu/libc.a(brk.o)
 .note.GNU-stack
                0x0000000000000000        0x0 /usr/lib/gcc/x86_64-linux-gnu/10/../../../x86_64-linux-gnu/libc.a(dl-load.o)
 .note.GNU-stack
                0x0000000000000000        0x0 /usr/lib/gcc/x86_64-linux-gnu/10/../../../x86_64-linux-gnu/libc.a(dl-lookup.o)
 .note.GNU-stack
                0x0000000000000000        0x0 /usr/lib/gcc/x86_64-linux-gnu/10/../../../x86_64-linux-gnu/libc.a(dl-object.o)
 .note.GNU-stack
                0x0000000000000000        0x0 /usr/lib/gcc/x86_64-linux-gnu/10/../../../x86_64-linux-gnu/libc.a(dl-reloc.o)
 .note.GNU-stack
                0x0000000000000000        0x0 /usr/lib/gcc/x86_64-linux-gnu/10/../../../x86_64-linux-gnu/libc.a(dl-hwcaps.o)
 .note.GNU-stack
                0x0000000000000000        0x0 /usr/lib/gcc/x86_64-linux-gnu/10/../../../x86_64-linux-gnu/libc.a(dl-misc.o)
 .note.GNU-stack
                0x0000000000000000        0x0 /usr/lib/gcc/x86_64-linux-gnu/10/../../../x86_64-linux-gnu/libc.a(dl-profile.o)
 .note.GNU-stack
                0x0000000000000000        0x0 /usr/lib/gcc/x86_64-linux-gnu/10/../../../x86_64-linux-gnu/libc.a(dl-origin.o)
 .note.GNU-stack
                0x0000000000000000        0x0 /usr/lib/gcc/x86_64-linux-gnu/10/../../../x86_64-linux-gnu/libc.a(dl-scope.o)
 .note.GNU-stack
                0x0000000000000000        0x0 /usr/lib/gcc/x86_64-linux-gnu/10/../../../x86_64-linux-gnu/libc.a(dl-execstack.o)
 .note.GNU-stack
                0x0000000000000000        0x0 /usr/lib/gcc/x86_64-linux-gnu/10/../../../x86_64-linux-gnu/libc.a(dl-trampoline.o)
 .note.GNU-stack
                0x0000000000000000        0x0 /usr/lib/gcc/x86_64-linux-gnu/10/../../../x86_64-linux-gnu/libc.a(dl-exception.o)
 .note.GNU-stack
                0x0000000000000000        0x0 /usr/lib/gcc/x86_64-linux-gnu/10/../../../x86_64-linux-gnu/libc.a(dl-cache.o)
 .note.GNU-stack
                0x0000000000000000        0x0 /usr/lib/gcc/x86_64-linux-gnu/10/../../../x86_64-linux-gnu/libc.a(dl-tlsdesc.o)
 .note.GNU-stack
                0x0000000000000000        0x0 /usr/lib/gcc/x86_64-linux-gnu/10/../../../x86_64-linux-gnu/libc.a(dl-libc.o)
 .note.GNU-stack
                0x0000000000000000        0x0 /usr/lib/gcc/x86_64-linux-gnu/10/../../../x86_64-linux-gnu/libc.a(lc-monetary.o)
 .note.GNU-stack
                0x0000000000000000        0x0 /usr/lib/gcc/x86_64-linux-gnu/10/../../../x86_64-linux-gnu/libc.a(C-messages.o)
 .note.GNU-stack
                0x0000000000000000        0x0 /usr/lib/gcc/x86_64-linux-gnu/10/../../../x86_64-linux-gnu/libc.a(C-monetary.o)
 .note.GNU-stack
                0x0000000000000000        0x0 /usr/lib/gcc/x86_64-linux-gnu/10/../../../x86_64-linux-gnu/libc.a(C-numeric.o)
 .note.GNU-stack
                0x0000000000000000        0x0 /usr/lib/gcc/x86_64-linux-gnu/10/../../../x86_64-linux-gnu/libc.a(C-time.o)
 .note.GNU-stack
                0x0000000000000000        0x0 /usr/lib/gcc/x86_64-linux-gnu/10/../../../x86_64-linux-gnu/libc.a(C-paper.o)
 .note.GNU-stack
                0x0000000000000000        0x0 /usr/lib/gcc/x86_64-linux-gnu/10/../../../x86_64-linux-gnu/libc.a(C-name.o)
 .note.GNU-stack
                0x0000000000000000        0x0 /usr/lib/gcc/x86_64-linux-gnu/10/../../../x86_64-linux-gnu/libc.a(C-address.o)
 .note.GNU-stack
                0x0000000000000000        0x0 /usr/lib/gcc/x86_64-linux-gnu/10/../../../x86_64-linux-gnu/libc.a(C-telephone.o)
 .note.GNU-stack
                0x0000000000000000        0x0 /usr/lib/gcc/x86_64-linux-gnu/10/../../../x86_64-linux-gnu/libc.a(C-measurement.o)
 .note.GNU-stack
                0x0000000000000000        0x0 /usr/lib/gcc/x86_64-linux-gnu/10/../../../x86_64-linux-gnu/libc.a(C-identification.o)
 .note.GNU-stack
                0x0000000000000000        0x0 /usr/lib/gcc/x86_64-linux-gnu/10/../../../x86_64-linux-gnu/libc.a(C-collate.o)
 .note.GNU-stack
                0x0000000000000000        0x0 /usr/lib/gcc/x86_64-linux-gnu/10/../../../x86_64-linux-gnu/libc.a(cmp.o)
 .note.GNU-stack
                0x0000000000000000        0x0 /usr/lib/gcc/x86_64-linux-gnu/10/../../../x86_64-linux-gnu/libc.a(divrem.o)
 .note.GNU-stack
                0x0000000000000000        0x0 /usr/lib/gcc/x86_64-linux-gnu/10/../../../x86_64-linux-gnu/libc.a(lshift.o)
 .note.GNU-stack
                0x0000000000000000        0x0 /usr/lib/gcc/x86_64-linux-gnu/10/../../../x86_64-linux-gnu/libc.a(rshift.o)
 .note.GNU-stack
                0x0000000000000000        0x0 /usr/lib/gcc/x86_64-linux-gnu/10/../../../x86_64-linux-gnu/libc.a(mul.o)
 .note.GNU-stack
                0x0000000000000000        0x0 /usr/lib/gcc/x86_64-linux-gnu/10/../../../x86_64-linux-gnu/libc.a(mul_1.o)
 .note.GNU-stack
                0x0000000000000000        0x0 /usr/lib/gcc/x86_64-linux-gnu/10/../../../x86_64-linux-gnu/libc.a(mul_n.o)
 .note.GNU-stack
                0x0000000000000000        0x0 /usr/lib/gcc/x86_64-linux-gnu/10/../../../x86_64-linux-gnu/libc.a(sub_n.o)
 .note.GNU-stack
                0x0000000000000000        0x0 /usr/lib/gcc/x86_64-linux-gnu/10/../../../x86_64-linux-gnu/libc.a(submul_1.o)
 .note.GNU-stack
                0x0000000000000000        0x0 /usr/lib/gcc/x86_64-linux-gnu/10/../../../x86_64-linux-gnu/libc.a(dbl2mpn.o)
 .note.GNU-stack
                0x0000000000000000        0x0 /usr/lib/gcc/x86_64-linux-gnu/10/../../../x86_64-linux-gnu/libc.a(ldbl2mpn.o)
 .note.GNU-stack
                0x0000000000000000        0x0 /usr/lib/gcc/x86_64-linux-gnu/10/../../../x86_64-linux-gnu/libc.a(float1282mpn.o)
 .note.GNU-stack
                0x0000000000000000        0x0 /usr/lib/gcc/x86_64-linux-gnu/10/../../../x86_64-linux-gnu/libc.a(fpioconst.o)
 .note.GNU-stack
                0x0000000000000000        0x0 /usr/lib/gcc/x86_64-linux-gnu/10/../../../x86_64-linux-gnu/libc.a(itowa-digits.o)
 .note.GNU-stack
                0x0000000000000000        0x0 /usr/lib/gcc/x86_64-linux-gnu/10/../../../x86_64-linux-gnu/libc.a(sdlerror.o)
 .note.GNU-stack
                0x0000000000000000        0x0 /usr/lib/gcc/x86_64-linux-gnu/10/../../../x86_64-linux-gnu/libc.a(sdladdr.o)
 .note.GNU-stack
                0x0000000000000000        0x0 /usr/lib/gcc/x86_64-linux-gnu/10/../../../x86_64-linux-gnu/libc.a(sdladdr1.o)
 .note.GNU-stack
                0x0000000000000000        0x0 /usr/lib/gcc/x86_64-linux-gnu/10/../../../x86_64-linux-gnu/libc.a(sdlinfo.o)
 .note.GNU-stack
                0x0000000000000000        0x0 /usr/lib/gcc/x86_64-linux-gnu/10/../../../x86_64-linux-gnu/libc.a(sdlmopen.o)
 .note.GNU-stack
                0x0000000000000000        0x0 /usr/lib/gcc/x86_64-linux-gnu/10/../../../x86_64-linux-gnu/libc.a(strerror.o)
 .note.GNU-stack
                0x0000000000000000        0x0 /usr/lib/gcc/x86_64-linux-gnu/10/../../../x86_64-linux-gnu/libc.a(strspn.o)
 .note.GNU-stack
                0x0000000000000000        0x0 /usr/lib/gcc/x86_64-linux-gnu/10/../../../x86_64-linux-gnu/libc.a(strsep.o)
 .note.GNU-stack
                0x0000000000000000        0x0 /usr/lib/gcc/x86_64-linux-gnu/10/../../../x86_64-linux-gnu/libc.a(strspn-sse2.o)
 .note.GNU-stack
                0x0000000000000000        0x0 /usr/lib/gcc/x86_64-linux-gnu/10/../../../x86_64-linux-gnu/libc.a(strspn-c.o)
 .note.GNU-stack
                0x0000000000000000        0x0 /usr/lib/gcc/x86_64-linux-gnu/10/../../../x86_64-linux-gnu/libc.a(getdents64.o)
 .note.GNU-stack
                0x0000000000000000        0x0 /usr/lib/gcc/x86_64-linux-gnu/10/../../../x86_64-linux-gnu/libc.a(getpid.o)
 .note.GNU-stack
                0x0000000000000000        0x0 /usr/lib/gcc/x86_64-linux-gnu/10/../../../x86_64-linux-gnu/libc.a(pread64_nocancel.o)
 .note.GNU-stack
                0x0000000000000000        0x0 /usr/lib/gcc/x86_64-linux-gnu/10/../../../x86_64-linux-gnu/libc.a(profil.o)
 .note.GNU-stack
                0x0000000000000000        0x0 /usr/lib/gcc/x86_64-linux-gnu/10/../../../x86_64-linux-gnu/libc.a(prof-freq.o)
 .note.GNU-stack
                0x0000000000000000        0x0 /usr/lib/gcc/x86_64-linux-gnu/10/../../../x86_64-linux-gnu/libc.a(dl-runtime.o)
 .note.GNU-stack
                0x0000000000000000        0x0 /usr/lib/gcc/x86_64-linux-gnu/10/../../../x86_64-linux-gnu/libc.a(dl-open.o)
 .note.GNU-stack
                0x0000000000000000        0x0 /usr/lib/gcc/x86_64-linux-gnu/10/../../../x86_64-linux-gnu/libc.a(dl-close.o)
 .note.GNU-stack
                0x0000000000000000        0x0 /usr/lib/gcc/x86_64-linux-gnu/10/../../../x86_64-linux-gnu/libc.a(dl-sort-maps.o)
 .note.GNU-stack
                0x0000000000000000        0x0 /usr/lib/gcc/x86_64-linux-gnu/10/../../../x86_64-linux-gnu/libc.a(tlsdesc.o)
 .note.GNU-stack
                0x0000000000000000        0x0 /usr/lib/gcc/x86_64-linux-gnu/10/../../../x86_64-linux-gnu/libc.a(dl-addr.o)
 .note.GNU-stack
                0x0000000000000000        0x0 /usr/lib/gcc/x86_64-linux-gnu/10/../../../x86_64-linux-gnu/libc.a(dl-addr-obj.o)
 .note.GNU-stack
                0x0000000000000000        0x0 /usr/lib/gcc/x86_64-linux-gnu/10/../../../x86_64-linux-gnu/libc.a(add_n.o)
 .note.GNU-stack
                0x0000000000000000        0x0 /usr/lib/gcc/x86_64-linux-gnu/10/../../../x86_64-linux-gnu/libc.a(addmul_1.o)
 .note.GNU-stack
                0x0000000000000000        0x0 /usr/lib/gcc/x86_64-linux-gnu/10/../../../x86_64-linux-gnu/libc.a(sdlopen.o)
 .note.GNU-stack
                0x0000000000000000        0x0 /usr/lib/gcc/x86_64-linux-gnu/10/../../../x86_64-linux-gnu/libc.a(sdlclose.o)
 .note.GNU-stack
                0x0000000000000000        0x0 /usr/lib/gcc/x86_64-linux-gnu/10/../../../x86_64-linux-gnu/libc.a(sdlsym.o)
 .note.GNU-stack
                0x0000000000000000        0x0 /usr/lib/gcc/x86_64-linux-gnu/10/../../../x86_64-linux-gnu/libc.a(sdlvsym.o)
 .note.GNU-stack
                0x0000000000000000        0x0 /usr/lib/gcc/x86_64-linux-gnu/10/../../../x86_64-linux-gnu/libc.a(setitimer.o)
 .note.GNU-stack
                0x0000000000000000        0x0 /usr/lib/gcc/x86_64-linux-gnu/10/../../../x86_64-linux-gnu/libc.a(dl-deps.o)
 .note.GNU-stack
                0x0000000000000000        0x0 /usr/lib/gcc/x86_64-linux-gnu/10/../../../x86_64-linux-gnu/libc.a(dl-init.o)
 .note.GNU-stack
                0x0000000000000000        0x0 /usr/lib/gcc/x86_64-linux-gnu/10/../../../x86_64-linux-gnu/libc.a(dl-version.o)
 .note.GNU-stack
                0x0000000000000000        0x0 /usr/lib/gcc/x86_64-linux-gnu/10/../../../x86_64-linux-gnu/libc.a(dl-sym.o)
 .note.GNU-stack
                0x0000000000000000        0x0 /usr/lib/gcc/x86_64-linux-gnu/10/libgcc.a(unordtf2.o)
 .note.GNU-stack
                0x0000000000000000        0x0 /usr/lib/gcc/x86_64-linux-gnu/10/libgcc.a(letf2.o)
 .note.GNU-stack
                0x0000000000000000        0x0 /usr/lib/gcc/x86_64-linux-gnu/10/libgcc.a(sfp-exceptions.o)
 .note.GNU-stack
                0x0000000000000000        0x0 /usr/lib/gcc/x86_64-linux-gnu/10/libgcc_eh.a(unwind-dw2.o)
 .note.GNU-stack
                0x0000000000000000        0x0 /usr/lib/gcc/x86_64-linux-gnu/10/libgcc_eh.a(unwind-dw2-fde-dip.o)
 .note.GNU-stack
                0x0000000000000000        0x0 /usr/lib/gcc/x86_64-linux-gnu/10/libgcc_eh.a(unwind-c.o)
 .note.GNU-stack
                0x0000000000000000        0x0 /usr/lib/gcc/x86_64-linux-gnu/10/../../../x86_64-linux-gnu/libc.a(dl-iteratephdr.o)
 .note.GNU-stack
                0x0000000000000000        0x0 /usr/lib/gcc/x86_64-linux-gnu/10/crtend.o
 .note.GNU-stack
                0x0000000000000000        0x0 /usr/lib/gcc/x86_64-linux-gnu/10/../../../x86_64-linux-gnu/crtn.o

Memory Configuration

Name             Origin             Length             Attributes
*default*        0x0000000000000000 0xffffffffffffffff

Linker script and memory map

LOAD /usr/lib/gcc/x86_64-linux-gnu/10/../../../x86_64-linux-gnu/crt1.o
LOAD /usr/lib/gcc/x86_64-linux-gnu/10/../../../x86_64-linux-gnu/crti.o
LOAD /usr/lib/gcc/x86_64-linux-gnu/10/crtbeginT.o
LOAD ropex.o
LOAD gadget.o
START GROUP
LOAD /usr/lib/gcc/x86_64-linux-gnu/10/libgcc.a
LOAD /usr/lib/gcc/x86_64-linux-gnu/10/libgcc_eh.a
LOAD /usr/lib/gcc/x86_64-linux-gnu/10/../../../x86_64-linux-gnu/libc.a
END GROUP
LOAD /usr/lib/gcc/x86_64-linux-gnu/10/crtend.o
LOAD /usr/lib/gcc/x86_64-linux-gnu/10/../../../x86_64-linux-gnu/crtn.o
                [!provide]                        PROVIDE (__executable_start = SEGMENT_START ("text-segment", 0x400000))
                0x0000000000400200                . = (SEGMENT_START ("text-segment", 0x400000) + SIZEOF_HEADERS)

.interp
 *(.interp)

.note.gnu.build-id
                0x0000000000400200       0x24
 *(.note.gnu.build-id)
 .note.gnu.build-id
                0x0000000000400200       0x24 /usr/lib/gcc/x86_64-linux-gnu/10/../../../x86_64-linux-gnu/crt1.o

.note.ABI-tag   0x0000000000400224       0x20
 .note.ABI-tag  0x0000000000400224       0x20 /usr/lib/gcc/x86_64-linux-gnu/10/../../../x86_64-linux-gnu/crt1.o

.hash
 *(.hash)

.gnu.hash
 *(.gnu.hash)

.dynsym
 *(.dynsym)

.dynstr
 *(.dynstr)

.gnu.version
 *(.gnu.version)

.gnu.version_d
 *(.gnu.version_d)

.gnu.version_r
 *(.gnu.version_r)

.rela.dyn       0x0000000000400248        0x0
 *(.rela.init)
 .rela.init     0x0000000000400248        0x0 /usr/lib/gcc/x86_64-linux-gnu/10/../../../x86_64-linux-gnu/crt1.o
 *(.rela.text .rela.text.* .rela.gnu.linkonce.t.*)
 .rela.text     0x0000000000400248        0x0 /usr/lib/gcc/x86_64-linux-gnu/10/../../../x86_64-linux-gnu/crt1.o
 *(.rela.fini)
 *(.rela.rodata .rela.rodata.* .rela.gnu.linkonce.r.*)
 *(.rela.data .rela.data.* .rela.gnu.linkonce.d.*)
 .rela.data.rel.ro
                0x0000000000400248        0x0 /usr/lib/gcc/x86_64-linux-gnu/10/../../../x86_64-linux-gnu/crt1.o
 *(.rela.tdata .rela.tdata.* .rela.gnu.linkonce.td.*)
 *(.rela.tbss .rela.tbss.* .rela.gnu.linkonce.tb.*)
 *(.rela.ctors)
 *(.rela.dtors)
 *(.rela.got)
 .rela.got      0x0000000000400248        0x0 /usr/lib/gcc/x86_64-linux-gnu/10/../../../x86_64-linux-gnu/crt1.o
 *(.rela.bss .rela.bss.* .rela.gnu.linkonce.b.*)
 *(.rela.ldata .rela.ldata.* .rela.gnu.linkonce.l.*)
 *(.rela.lbss .rela.lbss.* .rela.gnu.linkonce.lb.*)
 *(.rela.lrodata .rela.lrodata.* .rela.gnu.linkonce.lr.*)
 *(.rela.ifunc)
 .rela.eh_frame
                0x0000000000400248        0x0 /usr/lib/gcc/x86_64-linux-gnu/10/../../../x86_64-linux-gnu/crt1.o
 .rela__libc_IO_vtables
                0x0000000000400248        0x0 /usr/lib/gcc/x86_64-linux-gnu/10/../../../x86_64-linux-gnu/crt1.o

.rela.plt       0x0000000000400248      0x240
 *(.rela.plt)
                0x0000000000400248                PROVIDE (__rela_iplt_start = .)
 *(.rela.iplt)
 .rela.iplt     0x0000000000400248      0x240 /usr/lib/gcc/x86_64-linux-gnu/10/../../../x86_64-linux-gnu/crt1.o
                0x0000000000400488                PROVIDE (__rela_iplt_end = .)
                0x0000000000401000                . = ALIGN (CONSTANT (MAXPAGESIZE))

.init           0x0000000000401000       0x17
 *(SORT_NONE(.init))
 .init          0x0000000000401000       0x12 /usr/lib/gcc/x86_64-linux-gnu/10/../../../x86_64-linux-gnu/crti.o
                0x0000000000401000                _init
 .init          0x0000000000401012        0x5 /usr/lib/gcc/x86_64-linux-gnu/10/../../../x86_64-linux-gnu/crtn.o

.plt            0x0000000000401018       0xc0
 *(.plt)
 *(.iplt)
 *fill*         0x0000000000401018        0x0 
 .iplt          0x0000000000401018       0xc0 /usr/lib/gcc/x86_64-linux-gnu/10/../../../x86_64-linux-gnu/crt1.o

.plt.got
 *(.plt.got)

.plt.sec
 *(.plt.sec)

.text           0x00000000004010e0    0x7f3d0
 *(.text.unlikely .text.*_unlikely .text.unlikely.*)
 .text.unlikely
                0x00000000004010e0        0xf /usr/lib/gcc/x86_64-linux-gnu/10/../../../x86_64-linux-gnu/libc.a(assert.o)
 .text.unlikely
                0x00000000004010ef        0x5 /usr/lib/gcc/x86_64-linux-gnu/10/../../../x86_64-linux-gnu/libc.a(loadmsgcat.o)
 .text.unlikely
                0x00000000004010f4      0x20f /usr/lib/gcc/x86_64-linux-gnu/10/../../../x86_64-linux-gnu/libc.a(abort.o)
                0x00000000004010f4                abort
 .text.unlikely
                0x0000000000401303       0x57 /usr/lib/gcc/x86_64-linux-gnu/10/../../../x86_64-linux-gnu/libc.a(iofclose.o)
 .text.unlikely
                0x000000000040135a       0x56 /usr/lib/gcc/x86_64-linux-gnu/10/../../../x86_64-linux-gnu/libc.a(iofflush.o)
 .text.unlikely
                0x00000000004013b0       0x57 /usr/lib/gcc/x86_64-linux-gnu/10/../../../x86_64-linux-gnu/libc.a(ioputs.o)
 .text.unlikely
                0x0000000000401407       0x61 /usr/lib/gcc/x86_64-linux-gnu/10/../../../x86_64-linux-gnu/libc.a(wfileops.o)
 .text.unlikely
                0x0000000000401468       0x57 /usr/lib/gcc/x86_64-linux-gnu/10/../../../x86_64-linux-gnu/libc.a(getc.o)
 .text.unlikely
                0x00000000004014bf       0x57 /usr/lib/gcc/x86_64-linux-gnu/10/../../../x86_64-linux-gnu/libc.a(fileops.o)
 .text.unlikely
                0x0000000000401516        0x6 /usr/lib/gcc/x86_64-linux-gnu/10/../../../x86_64-linux-gnu/libc.a(init-first.o)
                0x0000000000401516                _dl_start
 .text.unlikely
                0x000000000040151c        0x5 /usr/lib/gcc/x86_64-linux-gnu/10/../../../x86_64-linux-gnu/libc.a(printf_fp.o)
 .text.unlikely
                0x0000000000401521        0x5 /usr/lib/gcc/x86_64-linux-gnu/10/../../../x86_64-linux-gnu/libc.a(printf_fphex.o)
 .text.unlikely
                0x0000000000401526       0x56 /usr/lib/gcc/x86_64-linux-gnu/10/../../../x86_64-linux-gnu/libc.a(iofputs.o)
 .text.unlikely
                0x000000000040157c       0x56 /usr/lib/gcc/x86_64-linux-gnu/10/../../../x86_64-linux-gnu/libc.a(iofwrite.o)
 .text.unlikely
                0x00000000004015d2       0x56 /usr/lib/gcc/x86_64-linux-gnu/10/../../../x86_64-linux-gnu/libc.a(iogetdelim.o)
 .text.unlikely
                0x0000000000401628       0x55 /usr/lib/gcc/x86_64-linux-gnu/10/libgcc_eh.a(unwind-dw2.o)
 .text.unlikely
                0x000000000040167d       0x32 /usr/lib/gcc/x86_64-linux-gnu/10/libgcc_eh.a(unwind-dw2-fde-dip.o)
 .text.unlikely
                0x00000000004016af        0xf /usr/lib/gcc/x86_64-linux-gnu/10/libgcc_eh.a(unwind-c.o)
 *(.text.exit .text.exit.*)
 *fill*         0x00000000004016be        0x2 
 .text.exit     0x00000000004016c0       0x3d /usr/lib/gcc/x86_64-linux-gnu/10/../../../x86_64-linux-gnu/libc.a(sdlerror.o)
 *(.text.startup .text.startup.*)
 *fill*         0x00000000004016fd        0x3 
 .text.startup  0x0000000000401700      0x4b8 /usr/lib/gcc/x86_64-linux-gnu/10/../../../x86_64-linux-gnu/libc.a(cacheinfo.o)
 *(.text.hot .text.hot.*)
 *(SORT_BY_NAME(.text.sorted.*))
 *(.text .stub .text.* .gnu.linkonce.t.*)
 *fill*         0x0000000000401bb8        0x8 
 .text          0x0000000000401bc0       0x31 /usr/lib/gcc/x86_64-linux-gnu/10/../../../x86_64-linux-gnu/crt1.o
                0x0000000000401bc0                _start
                0x0000000000401bf0                _dl_relocate_static_pie
 .text          0x0000000000401bf1        0x0 /usr/lib/gcc/x86_64-linux-gnu/10/../../../x86_64-linux-gnu/crti.o
 *fill*         0x0000000000401bf1        0xf 
 .text          0x0000000000401c00       0xdd /usr/lib/gcc/x86_64-linux-gnu/10/crtbeginT.o
 .text          0x0000000000401cdd       0x9e ropex.o
                0x0000000000401cdd                readline
                0x0000000000401d13                echo
                0x0000000000401d2c                main
 .text          0x0000000000401d7b        0xf gadget.o
                0x0000000000401d7b                gadget
 *fill*         0x0000000000401d8a        0x6 
 .text          0x0000000000401d90      0xa45 /usr/lib/gcc/x86_64-linux-gnu/10/../../../x86_64-linux-gnu/libc.a(libc-start.o)
                0x00000000004021b0                __libc_start_main
 *fill*         0x00000000004027d5        0xb 
 .text          0x00000000004027e0       0xe2 /usr/lib/gcc/x86_64-linux-gnu/10/../../../x86_64-linux-gnu/libc.a(check_fds.o)
                0x0000000000402890                __libc_check_standard_fds
 *fill*         0x00000000004028c2        0xe 
 .text          0x00000000004028d0      0x2a8 /usr/lib/gcc/x86_64-linux-gnu/10/../../../x86_64-linux-gnu/libc.a(libc-tls.o)
                0x00000000004028d0                __libc_setup_tls
 *fill*         0x0000000000402b78        0x8 
 .text          0x0000000000402b80       0xcd /usr/lib/gcc/x86_64-linux-gnu/10/../../../x86_64-linux-gnu/libc.a(elf-init.o)
                0x0000000000402b80                __libc_csu_init
                0x0000000000402c10                __libc_csu_fini
 .text          0x0000000000402c4d        0x0 /usr/lib/gcc/x86_64-linux-gnu/10/../../../x86_64-linux-gnu/libc.a(errno.o)
 *fill*         0x0000000000402c4d        0x3 
 .text          0x0000000000402c50      0x1a2 /usr/lib/gcc/x86_64-linux-gnu/10/../../../x86_64-linux-gnu/libc.a(assert.o)
                0x0000000000402c50                __assert_fail_base
                0x0000000000402db0                __assert_fail
 *fill*         0x0000000000402df2        0xe 
 .text          0x0000000000402e00        0xf /usr/lib/gcc/x86_64-linux-gnu/10/../../../x86_64-linux-gnu/libc.a(dcgettext.o)
                0x0000000000402e00                __dcgettext
                0x0000000000402e00                dcgettext
 *fill*         0x0000000000402e0f        0x1 
 .text          0x0000000000402e10     0x157a /usr/lib/gcc/x86_64-linux-gnu/10/../../../x86_64-linux-gnu/libc.a(dcigettext.o)
                0x0000000000403080                _nl_find_msg
                0x0000000000403ab0                __dcigettext
 *fill*         0x000000000040438a        0x6 
 .text          0x0000000000404390      0x295 /usr/lib/gcc/x86_64-linux-gnu/10/../../../x86_64-linux-gnu/libc.a(finddomain.o)
                0x0000000000404390                _nl_find_domain
 *fill*         0x0000000000404625        0xb 
 .text          0x0000000000404630     0x1675 /usr/lib/gcc/x86_64-linux-gnu/10/../../../x86_64-linux-gnu/libc.a(loadmsgcat.o)
                0x0000000000404630                _nl_load_domain
 *fill*         0x0000000000405ca5        0xb 
 .text          0x0000000000405cb0      0x6ae /usr/lib/gcc/x86_64-linux-gnu/10/../../../x86_64-linux-gnu/libc.a(localealias.o)
                0x0000000000406180                _nl_expand_alias
 *fill*         0x000000000040635e        0x2 
 .text          0x0000000000406360      0x62a /usr/lib/gcc/x86_64-linux-gnu/10/../../../x86_64-linux-gnu/libc.a(l10nflist.o)
                0x0000000000406360                _nl_make_l10nflist
                0x0000000000406870                _nl_normalize_codeset
 *fill*         0x000000000040698a        0x6 
 .text          0x0000000000406990      0x1e0 /usr/lib/gcc/x86_64-linux-gnu/10/../../../x86_64-linux-gnu/libc.a(explodename.o)
                0x0000000000406990                _nl_explode_name
 .text          0x0000000000406b70      0xb07 /usr/lib/gcc/x86_64-linux-gnu/10/../../../x86_64-linux-gnu/libc.a(plural.o)
                0x0000000000406b70                __gettext_free_exp
                0x0000000000406bd0                __gettextparse
 *fill*         0x0000000000407677        0x9 
 .text          0x0000000000407680      0x105 /usr/lib/gcc/x86_64-linux-gnu/10/../../../x86_64-linux-gnu/libc.a(plural-exp.o)
                0x0000000000407680                __gettext_extract_plural
 *fill*         0x0000000000407785        0xb 
 .text          0x0000000000407790       0x4b /usr/lib/gcc/x86_64-linux-gnu/10/../../../x86_64-linux-gnu/libc.a(hash-string.o)
                0x0000000000407790                __hash_string
 *fill*         0x00000000004077db        0x5 
 .text          0x00000000004077e0        0x7 /usr/lib/gcc/x86_64-linux-gnu/10/../../../x86_64-linux-gnu/libc.a(bsd-_setjmp.o)
                0x00000000004077e0                _setjmp
 *fill*         0x00000000004077e7        0x9 
 .text          0x00000000004077f0      0x179 /usr/lib/gcc/x86_64-linux-gnu/10/../../../x86_64-linux-gnu/libc.a(raise.o)
                0x00000000004077f0                gsignal
                0x00000000004077f0                raise
 .text          0x0000000000407969        0x0 /usr/lib/gcc/x86_64-linux-gnu/10/../../../x86_64-linux-gnu/libc.a(abort.o)
 *fill*         0x0000000000407969        0x7 
 .text          0x0000000000407970      0x698 /usr/lib/gcc/x86_64-linux-gnu/10/../../../x86_64-linux-gnu/libc.a(msort.o)
                0x0000000000407cc0                __qsort_r
                0x0000000000407cc0                qsort_r
                0x0000000000408000                qsort
 *fill*         0x0000000000408008        0x8 
 .text          0x0000000000408010       0xd5 /usr/lib/gcc/x86_64-linux-gnu/10/../../../x86_64-linux-gnu/libc.a(getenv.o)
                0x0000000000408010                getenv
 *fill*         0x00000000004080e5        0xb 
 .text          0x00000000004080f0      0x2ca /usr/lib/gcc/x86_64-linux-gnu/10/../../../x86_64-linux-gnu/libc.a(exit.o)
                0x00000000004080f0                __run_exit_handlers
                0x00000000004083a0                exit
 *fill*         0x00000000004083ba        0x6 
 .text          0x00000000004083c0      0x25c /usr/lib/gcc/x86_64-linux-gnu/10/../../../x86_64-linux-gnu/libc.a(cxa_atexit.o)
                0x00000000004083c0                __new_exitfn
                0x00000000004084e0                __internal_atexit
                0x0000000000408610                __cxa_atexit
 *fill*         0x000000000040861c        0x4 
 .text          0x0000000000408620       0x22 /usr/lib/gcc/x86_64-linux-gnu/10/../../../x86_64-linux-gnu/libc.a(strtoul.o)
                0x0000000000408620                __strtoull_internal
                0x0000000000408620                __strtoul_internal
                0x0000000000408630                strtoul
                0x0000000000408630                strtoull
                0x0000000000408630                strtouq
                0x0000000000408630                __strtoul
 *fill*         0x0000000000408642        0xe 
 .text          0x0000000000408650      0x4ba /usr/lib/gcc/x86_64-linux-gnu/10/../../../x86_64-linux-gnu/libc.a(strtoul_l.o)
                0x0000000000408650                ____strtoul_l_internal
                0x0000000000408650                ____strtoull_l_internal
                0x0000000000408b00                __strtoull_l
                0x0000000000408b00                strtoull_l
                0x0000000000408b00                strtoul_l
                0x0000000000408b00                __strtoul_l
 *fill*         0x0000000000408b0a        0x6 
 .text          0x0000000000408b10      0x1fb /usr/lib/gcc/x86_64-linux-gnu/10/../../../x86_64-linux-gnu/libc.a(grouping.o)
                0x0000000000408b10                __correctly_grouped_prefixmb
 *fill*         0x0000000000408d0b        0x5 
 .text          0x0000000000408d10       0xb3 /usr/lib/gcc/x86_64-linux-gnu/10/../../../x86_64-linux-gnu/libc.a(fprintf.o)
                0x0000000000408d10                fprintf
                0x0000000000408d10                _IO_fprintf
                0x0000000000408d10                __fprintf
 *fill*         0x0000000000408dc3        0xd 
 .text          0x0000000000408dd0       0xb3 /usr/lib/gcc/x86_64-linux-gnu/10/../../../x86_64-linux-gnu/libc.a(asprintf.o)
                0x0000000000408dd0                __asprintf
                0x0000000000408dd0                asprintf
                0x0000000000408dd0                ___asprintf
 *fill*         0x0000000000408e83        0xd 
 .text          0x0000000000408e90     0x5e49 /usr/lib/gcc/x86_64-linux-gnu/10/../../../x86_64-linux-gnu/libc.a(vfprintf-internal.o)
                0x000000000040ba90                __vfprintf_internal
 *fill*         0x000000000040ecd9        0x7 
 .text          0x000000000040ece0      0x647 /usr/lib/gcc/x86_64-linux-gnu/10/../../../x86_64-linux-gnu/libc.a(printf-parsemb.o)
                0x000000000040ed60                __parse_one_specmb
 *fill*         0x000000000040f327        0x9 
 .text          0x000000000040f330      0x4e2 /usr/lib/gcc/x86_64-linux-gnu/10/../../../x86_64-linux-gnu/libc.a(fxprintf.o)
                0x000000000040f4b0                __vfxprintf
                0x000000000040f5b0                __fxprintf
                0x000000000040f670                __fxprintf_nocancel
 *fill*         0x000000000040f812        0xe 
 .text          0x000000000040f820      0x284 /usr/lib/gcc/x86_64-linux-gnu/10/../../../x86_64-linux-gnu/libc.a(iofclose.o)
                0x000000000040f820                _IO_fclose
                0x000000000040f820                _IO_new_fclose
                0x000000000040f820                fclose
                0x000000000040f820                __new_fclose
 *fill*         0x000000000040faa4        0xc 
 .text          0x000000000040fab0      0x125 /usr/lib/gcc/x86_64-linux-gnu/10/../../../x86_64-linux-gnu/libc.a(iofflush.o)
                0x000000000040fab0                _IO_fflush
                0x000000000040fab0                fflush
 *fill*         0x000000000040fbd5        0xb 
 .text          0x000000000040fbe0      0x13a /usr/lib/gcc/x86_64-linux-gnu/10/../../../x86_64-linux-gnu/libc.a(iofopen.o)
                0x000000000040fbe0                __fopen_maybe_mmap
                0x000000000040fc20                __fopen_internal
                0x000000000040fd10                _IO_fopen64
                0x000000000040fd10                _IO_new_fopen
                0x000000000040fd10                fopen
                0x000000000040fd10                _IO_fopen
                0x000000000040fd10                __new_fopen
                0x000000000040fd10                fopen64
 *fill*         0x000000000040fd1a        0x6 
 .text          0x000000000040fd20      0x135 /usr/lib/gcc/x86_64-linux-gnu/10/../../../x86_64-linux-gnu/libc.a(iopadn.o)
                0x000000000040fd20                _IO_padn
 *fill*         0x000000000040fe55        0xb 
 .text          0x000000000040fe60      0x1d8 /usr/lib/gcc/x86_64-linux-gnu/10/../../../x86_64-linux-gnu/libc.a(ioputs.o)
                0x000000000040fe60                puts
                0x000000000040fe60                _IO_puts
 *fill*         0x0000000000410038        0x8 
 .text          0x0000000000410040     0x19c6 /usr/lib/gcc/x86_64-linux-gnu/10/../../../x86_64-linux-gnu/libc.a(wfileops.o)
                0x0000000000410040                _IO_wfile_underflow
                0x00000000004107c0                _IO_wfile_seekoff
                0x0000000000411230                _IO_wdo_write
                0x0000000000411430                _IO_wfile_overflow
                0x0000000000411700                _IO_wfile_sync
                0x0000000000411890                _IO_wfile_xsputn
 *fill*         0x0000000000411a06        0xa 
 .text          0x0000000000411a10      0x426 /usr/lib/gcc/x86_64-linux-gnu/10/../../../x86_64-linux-gnu/libc.a(iofwide.o)
                0x0000000000411a10                _IO_fwide
                0x0000000000411b80                __libio_codecvt_out
                0x0000000000411c70                __libio_codecvt_in
                0x0000000000411d60                __libio_codecvt_encoding
                0x0000000000411d80                __libio_codecvt_length
 *fill*         0x0000000000411e36        0xa 
 .text          0x0000000000411e40      0x138 /usr/lib/gcc/x86_64-linux-gnu/10/../../../x86_64-linux-gnu/libc.a(getc.o)
                0x0000000000411e40                getc
                0x0000000000411e40                _IO_getc
                0x0000000000411e40                fgetc
 *fill*         0x0000000000411f78        0x8 
 .text          0x0000000000411f80      0x197 /usr/lib/gcc/x86_64-linux-gnu/10/../../../x86_64-linux-gnu/libc.a(vasprintf.o)
                0x0000000000411f80                __vasprintf_internal
                0x0000000000412110                __vasprintf
                0x0000000000412110                vasprintf
 *fill*         0x0000000000412117        0x9 
 .text          0x0000000000412120      0x284 /usr/lib/gcc/x86_64-linux-gnu/10/../../../x86_64-linux-gnu/libc.a(libc_fatal.o)
                0x0000000000412120                __libc_message
                0x0000000000412380                __libc_fatal
 *fill*         0x00000000004123a4        0xc 
 .text          0x00000000004123b0       0x18 /usr/lib/gcc/x86_64-linux-gnu/10/../../../x86_64-linux-gnu/libc.a(vtables.o)
                0x00000000004123b0                _IO_vtable_check
 *fill*         0x00000000004123c8        0x8 
 .text          0x00000000004123d0       0x98 /usr/lib/gcc/x86_64-linux-gnu/10/../../../x86_64-linux-gnu/libc.a(iofgets_u.o)
                0x00000000004123d0                __fgets_unlocked
                0x00000000004123d0                fgets_unlocked
 *fill*         0x0000000000412468        0x8 
 .text          0x0000000000412470     0x24a1 /usr/lib/gcc/x86_64-linux-gnu/10/../../../x86_64-linux-gnu/libc.a(fileops.o)
                0x00000000004124e0                _IO_file_close
                0x00000000004124f0                _IO_file_setbuf
                0x00000000004124f0                _IO_new_file_setbuf
                0x0000000000412680                _IO_file_underflow
                0x0000000000412680                _IO_new_file_underflow
                0x00000000004129a0                _IO_file_close_mmap
                0x0000000000412c30                _IO_file_seek
                0x0000000000412e40                _IO_file_underflow_maybe_mmap
                0x0000000000412f00                _IO_file_seekoff
                0x0000000000412f00                _IO_new_file_seekoff
                0x00000000004134f0                _IO_file_stat
                0x0000000000413500                _IO_file_write
                0x0000000000413500                _IO_new_file_write
                0x00000000004136a0                _IO_file_xsgetn
                0x00000000004138d0                _IO_file_seekoff_mmap
                0x0000000000413a00                _IO_file_underflow_mmap
                0x0000000000413a90                _IO_new_file_xsputn
                0x0000000000413a90                _IO_file_xsputn
                0x0000000000413c70                _IO_file_read
                0x0000000000413c90                _IO_file_setbuf_mmap
                0x0000000000413d10                _IO_new_file_init_internal
                0x0000000000413d40                _IO_new_file_init
                0x0000000000413d40                _IO_file_init
                0x0000000000413d70                _IO_file_open
                0x0000000000413e60                _IO_new_file_attach
                0x0000000000413e60                _IO_file_attach
                0x0000000000413f10                _IO_new_do_write
                0x0000000000413f10                _IO_do_write
                0x0000000000413f40                _IO_new_file_close_it
                0x0000000000413f40                _IO_file_close_it
                0x00000000004140e0                _IO_new_file_fopen
                0x00000000004140e0                _IO_file_fopen
                0x0000000000414580                _IO_file_finish
                0x0000000000414580                _IO_new_file_finish
                0x0000000000414620                _IO_file_overflow
                0x0000000000414620                _IO_new_file_overflow
                0x0000000000414830                _IO_file_sync
                0x0000000000414830                _IO_new_file_sync
 *fill*         0x0000000000414911        0xf 
 .text          0x0000000000414920     0x26b7 /usr/lib/gcc/x86_64-linux-gnu/10/../../../x86_64-linux-gnu/libc.a(genops.o)
                0x0000000000414ec0                _IO_un_link
                0x0000000000414ee0                _IO_link_in
                0x0000000000415190                _IO_least_marker
                0x00000000004151c0                _IO_switch_to_main_get_area
                0x00000000004151f0                _IO_switch_to_backup_area
                0x0000000000415220                _IO_switch_to_get_mode
                0x00000000004152c0                _IO_free_backup_area
                0x0000000000415310                __overflow
                0x0000000000415380                __underflow
                0x00000000004154f0                __uflow
                0x0000000000415660                _IO_setb
                0x00000000004156c0                _IO_doallocbuf
                0x0000000000415780                _IO_default_underflow
                0x0000000000415790                _IO_default_uflow
                0x00000000004157f0                _IO_default_xsputn
                0x0000000000415900                _IO_sgetn
                0x0000000000415970                _IO_default_xsgetn
                0x0000000000415a20                _IO_default_setbuf
                0x0000000000415b20                _IO_default_seekpos
                0x0000000000415b90                _IO_default_doallocate
                0x0000000000415c00                _IO_init_internal
                0x0000000000415cd0                _IO_init
                0x0000000000415da0                _IO_enable_locks
                0x0000000000415de0                _IO_old_init
                0x0000000000415e90                _IO_no_init
                0x0000000000415fe0                _IO_default_sync
                0x0000000000415ff0                _IO_default_finish
                0x0000000000416070                _IO_default_seekoff
                0x0000000000416080                _IO_sputbackc
                0x0000000000416100                _IO_sungetc
                0x0000000000416180                _IO_adjust_column
                0x00000000004161b0                _IO_flush_all_lockp
                0x00000000004164b0                _IO_cleanup
                0x0000000000416820                _IO_flush_all
                0x0000000000416830                _IO_flush_all_linebuffered
                0x0000000000416830                _flushlbf
                0x0000000000416b00                _IO_init_marker
                0x0000000000416b60                _IO_remove_marker
                0x0000000000416ba0                _IO_marker_difference
                0x0000000000416bb0                _IO_marker_delta
                0x0000000000416be0                _IO_seekmark
                0x0000000000416c80                _IO_unsave_markers
                0x0000000000416ce0                _IO_default_pbackfail
                0x0000000000416e60                _IO_default_seek
                0x0000000000416e70                _IO_default_stat
                0x0000000000416e80                _IO_default_read
                0x0000000000416e90                _IO_default_write
                0x0000000000416ea0                _IO_default_showmanyc
                0x0000000000416eb0                _IO_default_imbue
                0x0000000000416ec0                _IO_iter_begin
                0x0000000000416ed0                _IO_iter_end
                0x0000000000416ee0                _IO_iter_next
                0x0000000000416ef0                _IO_iter_file
                0x0000000000416f00                _IO_list_lock
                0x0000000000416f60                _IO_list_unlock
                0x0000000000416fc0                _IO_list_resetlock
 .text          0x0000000000416fd7        0x0 /usr/lib/gcc/x86_64-linux-gnu/10/../../../x86_64-linux-gnu/libc.a(stdfiles.o)
 .text          0x0000000000416fd7        0x0 /usr/lib/gcc/x86_64-linux-gnu/10/../../../x86_64-linux-gnu/libc.a(stdio.o)
 *fill*         0x0000000000416fd7        0x9 
 .text          0x0000000000416fe0      0x882 /usr/lib/gcc/x86_64-linux-gnu/10/../../../x86_64-linux-gnu/libc.a(strops.o)
                0x0000000000416fe0                _IO_str_underflow
                0x0000000000417040                _IO_str_overflow
                0x00000000004173a0                _IO_str_seekoff
                0x0000000000417630                _IO_str_pbackfail
                0x0000000000417650                _IO_str_finish
                0x0000000000417690                _IO_str_init_static_internal
                0x0000000000417730                _IO_str_init_static
                0x00000000004177d0                _IO_str_init_readonly
                0x0000000000417850                _IO_str_count
 *fill*         0x0000000000417862        0xe 
 .text          0x0000000000417870       0x44 /usr/lib/gcc/x86_64-linux-gnu/10/../../../x86_64-linux-gnu/libc.a(alloca_cutoff.o)
                0x0000000000417870                __libc_alloca_cutoff
 *fill*         0x00000000004178b4        0xc 
 .text          0x00000000004178c0       0x31 /usr/lib/gcc/x86_64-linux-gnu/10/../../../x86_64-linux-gnu/libc.a(libc-lowlevellock.o)
                0x00000000004178c0                __lll_lock_wait_private
 *fill*         0x00000000004178f1        0xf 
 .text          0x0000000000417900     0x6457 /usr/lib/gcc/x86_64-linux-gnu/10/../../../x86_64-linux-gnu/libc.a(malloc.o)
                0x0000000000417900                _dl_tunable_set_mmap_threshold
                0x0000000000417930                _dl_tunable_set_mmaps_max
                0x0000000000417950                _dl_tunable_set_top_pad
                0x0000000000417970                _dl_tunable_set_perturb_byte
                0x0000000000417980                _dl_tunable_set_trim_threshold
                0x00000000004179a0                _dl_tunable_set_arena_max
                0x00000000004179b0                _dl_tunable_set_arena_test
                0x00000000004179c0                _dl_tunable_set_tcache_max
                0x0000000000417a00                _dl_tunable_set_tcache_count
                0x0000000000417a20                _dl_tunable_set_tcache_unsorted_limit
                0x0000000000417a30                _dl_tunable_set_mxfast
                0x0000000000418460                _dl_tunable_set_mallopt_check
                0x000000000041c150                __malloc_fork_lock_parent
                0x000000000041c1f0                __malloc_fork_unlock_parent
                0x000000000041c2a0                __malloc_fork_unlock_child
                0x000000000041c340                __malloc_check_init
                0x000000000041c390                malloc
                0x000000000041c390                __malloc
                0x000000000041c390                __libc_malloc
                0x000000000041c9b0                __free
                0x000000000041c9b0                __libc_free
                0x000000000041c9b0                free
                0x000000000041ca90                __malloc_arena_thread_freeres
                0x000000000041cbe0                __libc_realloc
                0x000000000041cbe0                realloc
                0x000000000041cbe0                __realloc
                0x000000000041cf90                __libc_memalign
                0x000000000041cf90                __memalign
                0x000000000041cf90                memalign
                0x000000000041cf90                aligned_alloc
                0x000000000041cfa0                __libc_valloc
                0x000000000041cfa0                valloc
                0x000000000041cfa0                __valloc
                0x000000000041cfd0                pvalloc
                0x000000000041cfd0                __libc_pvalloc
                0x000000000041cfd0                __pvalloc
                0x000000000041d030                __calloc
                0x000000000041d030                calloc
                0x000000000041d030                __libc_calloc
                0x000000000041d3c0                __malloc_trim
                0x000000000041d3c0                malloc_trim
                0x000000000041d690                malloc_usable_size
                0x000000000041d690                __malloc_usable_size
                0x000000000041d750                __mallinfo
                0x000000000041d750                __libc_mallinfo
                0x000000000041d750                mallinfo
                0x000000000041d880                malloc_stats
                0x000000000041d880                __malloc_stats
                0x000000000041dac0                __libc_mallopt
                0x000000000041dac0                mallopt
                0x000000000041dac0                __mallopt
                0x000000000041dcc0                __posix_memalign
                0x000000000041dcc0                posix_memalign
                0x000000000041dd20                __malloc_info
                0x000000000041dd20                malloc_info
 *fill*         0x000000000041dd57        0x9 
 .text          0x000000000041dd60       0x1b /usr/lib/gcc/x86_64-linux-gnu/10/../../../x86_64-linux-gnu/libc.a(morecore.o)
                0x000000000041dd60                __default_morecore
 *fill*         0x000000000041dd7b        0x5 
 .text          0x000000000041dd80       0xa1 /usr/lib/gcc/x86_64-linux-gnu/10/../../../x86_64-linux-gnu/libc.a(scratch_buffer_grow_preserve.o)
                0x000000000041dd80                __libc_scratch_buffer_grow_preserve
 *fill*         0x000000000041de21        0xf 
 .text          0x000000000041de30       0xae /usr/lib/gcc/x86_64-linux-gnu/10/../../../x86_64-linux-gnu/libc.a(scratch_buffer_set_array_size.o)
                0x000000000041de30                __libc_scratch_buffer_set_array_size
 *fill*         0x000000000041dede        0x2 
 .text          0x000000000041dee0       0x41 /usr/lib/gcc/x86_64-linux-gnu/10/../../../x86_64-linux-gnu/libc.a(strchr.o)
                0x000000000041dee0                index
                0x000000000041dee0                strchr
 *fill*         0x000000000041df21        0xf 
 .text          0x000000000041df30       0x51 /usr/lib/gcc/x86_64-linux-gnu/10/../../../x86_64-linux-gnu/libc.a(strcmp.o)
                0x000000000041df30                strcmp
 *fill*         0x000000000041df81        0xf 
 .text          0x000000000041df90       0x51 /usr/lib/gcc/x86_64-linux-gnu/10/../../../x86_64-linux-gnu/libc.a(strcpy.o)
                0x000000000041df90                strcpy
 *fill*         0x000000000041dfe1        0xf 
 .text          0x000000000041dff0       0x1a /usr/lib/gcc/x86_64-linux-gnu/10/../../../x86_64-linux-gnu/libc.a(strcspn.o)
                0x000000000041dff0                strcspn
 *fill*         0x000000000041e00a        0x6 
 .text          0x000000000041e010       0x3c /usr/lib/gcc/x86_64-linux-gnu/10/../../../x86_64-linux-gnu/libc.a(strdup.o)
                0x000000000041e010                __strdup
                0x000000000041e010                strdup
 *fill*         0x000000000041e04c        0x4 
 .text          0x000000000041e050      0x1b6 /usr/lib/gcc/x86_64-linux-gnu/10/../../../x86_64-linux-gnu/libc.a(_strerror.o)
                0x000000000041e050                __strerror_r
                0x000000000041e050                strerror_r
 *fill*         0x000000000041e206        0xa 
 .text          0x000000000041e210       0x31 /usr/lib/gcc/x86_64-linux-gnu/10/../../../x86_64-linux-gnu/libc.a(strlen.o)
                0x000000000041e210                strlen
 *fill*         0x000000000041e241        0xf 
 .text          0x000000000041e250       0x31 /usr/lib/gcc/x86_64-linux-gnu/10/../../../x86_64-linux-gnu/libc.a(strnlen.o)
                0x000000000041e250                __strnlen
                0x000000000041e250                strnlen
 *fill*         0x000000000041e281        0xf 
 .text          0x000000000041e290       0x5b /usr/lib/gcc/x86_64-linux-gnu/10/../../../x86_64-linux-gnu/libc.a(strncmp.o)
                0x000000000041e290                strncmp
 *fill*         0x000000000041e2eb        0x5 
 .text          0x000000000041e2f0      0x78a /usr/lib/gcc/x86_64-linux-gnu/10/../../../x86_64-linux-gnu/libc.a(strstr.o)
                0x000000000041e770                __strstr_sse2
                0x000000000041ea60                strstr
                0x000000000041ea60                __libc_strstr
 *fill*         0x000000000041ea7a        0x6 
 .text          0x000000000041ea80       0x61 /usr/lib/gcc/x86_64-linux-gnu/10/../../../x86_64-linux-gnu/libc.a(memcmp.o)
                0x000000000041ea80                bcmp
                0x000000000041ea80                memcmp
 *fill*         0x000000000041eae1        0xf 
 .text          0x000000000041eaf0       0xc2 /usr/lib/gcc/x86_64-linux-gnu/10/../../../x86_64-linux-gnu/libc.a(memmove.o)
                0x000000000041eaf0                memmove
                0x000000000041eaf0                __libc_memmove
 *fill*         0x000000000041ebb2        0xe 
 .text          0x000000000041ebc0       0x96 /usr/lib/gcc/x86_64-linux-gnu/10/../../../x86_64-linux-gnu/libc.a(memset.o)
                0x000000000041ebc0                memset
 *fill*         0x000000000041ec56        0xa 
 .text          0x000000000041ec60       0xc2 /usr/lib/gcc/x86_64-linux-gnu/10/../../../x86_64-linux-gnu/libc.a(mempcpy.o)
                0x000000000041ec60                mempcpy
                0x000000000041ec60                __mempcpy
 *fill*         0x000000000041ed22        0xe 
 .text          0x000000000041ed30       0x51 /usr/lib/gcc/x86_64-linux-gnu/10/../../../x86_64-linux-gnu/libc.a(stpcpy.o)
                0x000000000041ed30                stpcpy
                0x000000000041ed30                __stpcpy
 *fill*         0x000000000041ed81        0xf 
 .text          0x000000000041ed90       0x44 /usr/lib/gcc/x86_64-linux-gnu/10/../../../x86_64-linux-gnu/libc.a(strcasecmp_l.o)
                0x000000000041ed90                strcasecmp_l
                0x000000000041ed90                __strcasecmp_l
 *fill*         0x000000000041edd4        0xc 
 .text          0x000000000041ede0       0xc2 /usr/lib/gcc/x86_64-linux-gnu/10/../../../x86_64-linux-gnu/libc.a(memcpy.o)
                0x000000000041ede0                memcpy
                0x000000000041ede0                __new_memcpy
 *fill*         0x000000000041eea2        0xe 
 .text          0x000000000041eeb0       0x31 /usr/lib/gcc/x86_64-linux-gnu/10/../../../x86_64-linux-gnu/libc.a(rawmemchr.o)
                0x000000000041eeb0                __rawmemchr
                0x000000000041eeb0                rawmemchr
 *fill*         0x000000000041eee1        0xf 
 .text          0x000000000041eef0       0x31 /usr/lib/gcc/x86_64-linux-gnu/10/../../../x86_64-linux-gnu/libc.a(strchrnul.o)
                0x000000000041eef0                __strchrnul
                0x000000000041eef0                strchrnul
 *fill*         0x000000000041ef21        0xf 
 .text          0x000000000041ef30     0x1439 /usr/lib/gcc/x86_64-linux-gnu/10/../../../x86_64-linux-gnu/libc.a(strcmp-sse2.o)
                0x000000000041ef30                __strcmp_sse2
 *fill*         0x0000000000420369        0x7 
 .text          0x0000000000420370      0x2a3 /usr/lib/gcc/x86_64-linux-gnu/10/../../../x86_64-linux-gnu/libc.a(strcmp-sse2-unaligned.o)
                0x0000000000420370                __strcmp_sse2_unaligned
 .text          0x0000000000420613        0x0 /usr/lib/gcc/x86_64-linux-gnu/10/../../../x86_64-linux-gnu/libc.a(strcmp-ssse3.o)
 *fill*         0x0000000000420613        0xd 
 .text.ssse3    0x0000000000420620     0x1259 /usr/lib/gcc/x86_64-linux-gnu/10/../../../x86_64-linux-gnu/libc.a(strcmp-ssse3.o)
                0x0000000000420620                __strcmp_ssse3
 .text          0x0000000000421879        0x0 /usr/lib/gcc/x86_64-linux-gnu/10/../../../x86_64-linux-gnu/libc.a(strcmp-avx2.o)
 *fill*         0x0000000000421879        0x7 
 .text.avx      0x0000000000421880      0x43f /usr/lib/gcc/x86_64-linux-gnu/10/../../../x86_64-linux-gnu/libc.a(strcmp-avx2.o)
                0x0000000000421880                __strcmp_avx2
 *fill*         0x0000000000421cbf        0x1 
 .text          0x0000000000421cc0     0x1849 /usr/lib/gcc/x86_64-linux-gnu/10/../../../x86_64-linux-gnu/libc.a(strncmp-sse2.o)
                0x0000000000421cc0                __strncmp_sse2
 .text          0x0000000000423509        0x0 /usr/lib/gcc/x86_64-linux-gnu/10/../../../x86_64-linux-gnu/libc.a(strncmp-ssse3.o)
 *fill*         0x0000000000423509        0x7 
 .text.ssse3    0x0000000000423510     0x1759 /usr/lib/gcc/x86_64-linux-gnu/10/../../../x86_64-linux-gnu/libc.a(strncmp-ssse3.o)
                0x0000000000423510                __strncmp_ssse3
 .text          0x0000000000424c69        0x0 /usr/lib/gcc/x86_64-linux-gnu/10/../../../x86_64-linux-gnu/libc.a(strncmp-sse4_2.o)
 *fill*         0x0000000000424c69        0x7 
 .text.sse4.2   0x0000000000424c70      0xfd9 /usr/lib/gcc/x86_64-linux-gnu/10/../../../x86_64-linux-gnu/libc.a(strncmp-sse4_2.o)
                0x0000000000424c70                __strncmp_sse42
 .text          0x0000000000425c49        0x0 /usr/lib/gcc/x86_64-linux-gnu/10/../../../x86_64-linux-gnu/libc.a(strncmp-avx2.o)
 *fill*         0x0000000000425c49        0x7 
 .text.avx      0x0000000000425c50      0x518 /usr/lib/gcc/x86_64-linux-gnu/10/../../../x86_64-linux-gnu/libc.a(strncmp-avx2.o)
                0x0000000000425c50                __strncmp_avx2
 *fill*         0x0000000000426168        0x8 
 .text          0x0000000000426170      0x1f9 /usr/lib/gcc/x86_64-linux-gnu/10/../../../x86_64-linux-gnu/libc.a(rawmemchr-sse2.o)
                0x0000000000426170                __rawmemchr_sse2
 .text          0x0000000000426369        0x0 /usr/lib/gcc/x86_64-linux-gnu/10/../../../x86_64-linux-gnu/libc.a(rawmemchr-avx2.o)
 *fill*         0x0000000000426369        0x7 
 .text.avx      0x0000000000426370      0x13d /usr/lib/gcc/x86_64-linux-gnu/10/../../../x86_64-linux-gnu/libc.a(rawmemchr-avx2.o)
                0x0000000000426370                __rawmemchr_avx2
 *fill*         0x00000000004264ad        0x3 
 .text          0x00000000004264b0      0x400 /usr/lib/gcc/x86_64-linux-gnu/10/../../../x86_64-linux-gnu/libc.a(memcmp-sse2.o)
                0x00000000004264b0                __memcmp_sse2
 .text          0x00000000004268b0        0x0 /usr/lib/gcc/x86_64-linux-gnu/10/../../../x86_64-linux-gnu/libc.a(memcmp-avx2-movbe.o)
 .text.avx      0x00000000004268b0      0x3d4 /usr/lib/gcc/x86_64-linux-gnu/10/../../../x86_64-linux-gnu/libc.a(memcmp-avx2-movbe.o)
                0x00000000004268b0                __memcmp_avx2_movbe
 .text          0x0000000000426c84        0x0 /usr/lib/gcc/x86_64-linux-gnu/10/../../../x86_64-linux-gnu/libc.a(memcmp-sse4.o)
 *fill*         0x0000000000426c84        0xc 
 .text.sse4.1   0x0000000000426c90     0x163e /usr/lib/gcc/x86_64-linux-gnu/10/../../../x86_64-linux-gnu/libc.a(memcmp-sse4.o)
                0x0000000000426c90                __memcmp_sse4_1
 .text          0x00000000004282ce        0x0 /usr/lib/gcc/x86_64-linux-gnu/10/../../../x86_64-linux-gnu/libc.a(memcpy-ssse3.o)
 *fill*         0x00000000004282ce        0x2 
 .text.ssse3    0x00000000004282d0     0x29e6 /usr/lib/gcc/x86_64-linux-gnu/10/../../../x86_64-linux-gnu/libc.a(memcpy-ssse3.o)
                0x00000000004282d0                __mempcpy_chk_ssse3
                0x00000000004282e0                __mempcpy_ssse3
                0x00000000004282f0                __memcpy_chk_ssse3
                0x0000000000428300                __memcpy_ssse3
 .text          0x000000000042acb6        0x0 /usr/lib/gcc/x86_64-linux-gnu/10/../../../x86_64-linux-gnu/libc.a(memmove-ssse3.o)
 *fill*         0x000000000042acb6        0xa 
 .text.ssse3    0x000000000042acc0     0x2b77 /usr/lib/gcc/x86_64-linux-gnu/10/../../../x86_64-linux-gnu/libc.a(memmove-ssse3.o)
                0x000000000042acc0                __memmove_chk_ssse3
                0x000000000042acd0                __memmove_ssse3
 .text          0x000000000042d837        0x0 /usr/lib/gcc/x86_64-linux-gnu/10/../../../x86_64-linux-gnu/libc.a(memcpy-ssse3-back.o)
 *fill*         0x000000000042d837        0x9 
 .text.ssse3    0x000000000042d840     0x2ae6 /usr/lib/gcc/x86_64-linux-gnu/10/../../../x86_64-linux-gnu/libc.a(memcpy-ssse3-back.o)
                0x000000000042d840                __mempcpy_chk_ssse3_back
                0x000000000042d850                __mempcpy_ssse3_back
                0x000000000042d860                __memcpy_chk_ssse3_back
                0x000000000042d870                __memcpy_ssse3_back
 .text          0x0000000000430326        0x0 /usr/lib/gcc/x86_64-linux-gnu/10/../../../x86_64-linux-gnu/libc.a(memmove-ssse3-back.o)
 *fill*         0x0000000000430326        0xa 
 .text.ssse3    0x0000000000430330     0x2b16 /usr/lib/gcc/x86_64-linux-gnu/10/../../../x86_64-linux-gnu/libc.a(memmove-ssse3-back.o)
                0x0000000000430330                __memmove_chk_ssse3_back
                0x0000000000430340                __memmove_ssse3_back
 .text          0x0000000000432e46        0x0 /usr/lib/gcc/x86_64-linux-gnu/10/../../../x86_64-linux-gnu/libc.a(memmove-avx512-no-vzeroupper.o)
 *fill*         0x0000000000432e46        0xa 
 .text.avx512   0x0000000000432e50      0x76b /usr/lib/gcc/x86_64-linux-gnu/10/../../../x86_64-linux-gnu/libc.a(memmove-avx512-no-vzeroupper.o)
                0x0000000000432e50                __mempcpy_chk_avx512_no_vzeroupper
                0x0000000000432e60                __mempcpy_avx512_no_vzeroupper
                0x0000000000432e70                __memcpy_chk_avx512_no_vzeroupper
                0x0000000000432e70                __memmove_chk_avx512_no_vzeroupper
                0x0000000000432e80                __memcpy_avx512_no_vzeroupper
                0x0000000000432e80                __memmove_avx512_no_vzeroupper
 *fill*         0x00000000004335bb        0x5 
 .text          0x00000000004335c0     0x2236 /usr/lib/gcc/x86_64-linux-gnu/10/../../../x86_64-linux-gnu/libc.a(strcasecmp_l-sse2.o)
                0x00000000004335c0                __strcasecmp_sse2
                0x00000000004335d0                __strcasecmp_l_sse2
 .text          0x00000000004357f6        0x0 /usr/lib/gcc/x86_64-linux-gnu/10/../../../x86_64-linux-gnu/libc.a(strcasecmp_l-ssse3.o)
 *fill*         0x00000000004357f6        0xa 
 .text.ssse3    0x0000000000435800     0x2146 /usr/lib/gcc/x86_64-linux-gnu/10/../../../x86_64-linux-gnu/libc.a(strcasecmp_l-ssse3.o)
                0x0000000000435800                __strcasecmp_ssse3
                0x0000000000435810                __strcasecmp_l_ssse3
 .text          0x0000000000437946        0x0 /usr/lib/gcc/x86_64-linux-gnu/10/../../../x86_64-linux-gnu/libc.a(strcasecmp_l-sse4_2.o)
 *fill*         0x0000000000437946        0xa 
 .text.sse4.2   0x0000000000437950     0x1ba6 /usr/lib/gcc/x86_64-linux-gnu/10/../../../x86_64-linux-gnu/libc.a(strcasecmp_l-sse4_2.o)
                0x0000000000437950                __strcasecmp_sse42
                0x0000000000437960                __strcasecmp_l_sse42
 .text          0x00000000004394f6        0x0 /usr/lib/gcc/x86_64-linux-gnu/10/../../../x86_64-linux-gnu/libc.a(strcasecmp_l-avx.o)
 *fill*         0x00000000004394f6        0xa 
 .text.avx      0x0000000000439500     0x1666 /usr/lib/gcc/x86_64-linux-gnu/10/../../../x86_64-linux-gnu/libc.a(strcasecmp_l-avx.o)
                0x0000000000439500                __strcasecmp_avx
                0x0000000000439510                __strcasecmp_l_avx
 *fill*         0x000000000043ab66        0xa 
 .text          0x000000000043ab70      0x21a /usr/lib/gcc/x86_64-linux-gnu/10/../../../x86_64-linux-gnu/libc.a(strchr-sse2.o)
                0x000000000043ab70                __strchr_sse2
 *fill*         0x000000000043ad8a        0x6 
 .text          0x000000000043ad90      0x20a /usr/lib/gcc/x86_64-linux-gnu/10/../../../x86_64-linux-gnu/libc.a(strchrnul-sse2.o)
                0x000000000043ad90                __strchrnul_sse2
 .text          0x000000000043af9a        0x0 /usr/lib/gcc/x86_64-linux-gnu/10/../../../x86_64-linux-gnu/libc.a(strchr-avx2.o)
 *fill*         0x000000000043af9a        0x6 
 .text.avx      0x000000000043afa0      0x224 /usr/lib/gcc/x86_64-linux-gnu/10/../../../x86_64-linux-gnu/libc.a(strchr-avx2.o)
                0x000000000043afa0                __strchr_avx2
 .text          0x000000000043b1c4        0x0 /usr/lib/gcc/x86_64-linux-gnu/10/../../../x86_64-linux-gnu/libc.a(strchrnul-avx2.o)
 *fill*         0x000000000043b1c4        0xc 
 .text.avx      0x000000000043b1d0      0x1ed /usr/lib/gcc/x86_64-linux-gnu/10/../../../x86_64-linux-gnu/libc.a(strchrnul-avx2.o)
                0x000000000043b1d0                __strchrnul_avx2
 *fill*         0x000000000043b3bd        0x3 
 .text          0x000000000043b3c0      0x19c /usr/lib/gcc/x86_64-linux-gnu/10/../../../x86_64-linux-gnu/libc.a(strlen-sse2.o)
                0x000000000043b3c0                __strlen_sse2
 *fill*         0x000000000043b55c        0x4 
 .text          0x000000000043b560      0x218 /usr/lib/gcc/x86_64-linux-gnu/10/../../../x86_64-linux-gnu/libc.a(strnlen-sse2.o)
                0x000000000043b560                __strnlen_sse2
 .text          0x000000000043b778        0x0 /usr/lib/gcc/x86_64-linux-gnu/10/../../../x86_64-linux-gnu/libc.a(strlen-avx2.o)
 *fill*         0x000000000043b778        0x8 
 .text.avx      0x000000000043b780      0x18e /usr/lib/gcc/x86_64-linux-gnu/10/../../../x86_64-linux-gnu/libc.a(strlen-avx2.o)
                0x000000000043b780                __strlen_avx2
 .text          0x000000000043b90e        0x0 /usr/lib/gcc/x86_64-linux-gnu/10/../../../x86_64-linux-gnu/libc.a(strnlen-avx2.o)
 *fill*         0x000000000043b90e        0x2 
 .text.avx      0x000000000043b910      0x31e /usr/lib/gcc/x86_64-linux-gnu/10/../../../x86_64-linux-gnu/libc.a(strnlen-avx2.o)
                0x000000000043b910                __strnlen_avx2
 .text          0x000000000043bc2e        0x0 /usr/lib/gcc/x86_64-linux-gnu/10/../../../x86_64-linux-gnu/libc.a(strcpy-avx2.o)
 *fill*         0x000000000043bc2e        0x2 
 .text.avx      0x000000000043bc30      0x388 /usr/lib/gcc/x86_64-linux-gnu/10/../../../x86_64-linux-gnu/libc.a(strcpy-avx2.o)
                0x000000000043bc30                __strcpy_avx2
 *fill*         0x000000000043bfb8        0x8 
 .text          0x000000000043bfc0       0xdc /usr/lib/gcc/x86_64-linux-gnu/10/../../../x86_64-linux-gnu/libc.a(strcpy-sse2.o)
                0x000000000043bfc0                __strcpy_sse2
 *fill*         0x000000000043c09c        0x4 
 .text          0x000000000043c0a0       0xdc /usr/lib/gcc/x86_64-linux-gnu/10/../../../x86_64-linux-gnu/libc.a(stpcpy-sse2.o)
                0x000000000043c0a0                __stpcpy_sse2
 .text          0x000000000043c17c        0x0 /usr/lib/gcc/x86_64-linux-gnu/10/../../../x86_64-linux-gnu/libc.a(strcpy-ssse3.o)
 *fill*         0x000000000043c17c        0x4 
 .text.ssse3    0x000000000043c180     0x17a2 /usr/lib/gcc/x86_64-linux-gnu/10/../../../x86_64-linux-gnu/libc.a(strcpy-ssse3.o)
                0x000000000043c180                __strcpy_ssse3
 .text          0x000000000043d922        0x0 /usr/lib/gcc/x86_64-linux-gnu/10/../../../x86_64-linux-gnu/libc.a(stpcpy-ssse3.o)
 *fill*         0x000000000043d922        0xe 
 .text.ssse3    0x000000000043d930     0x1803 /usr/lib/gcc/x86_64-linux-gnu/10/../../../x86_64-linux-gnu/libc.a(stpcpy-ssse3.o)
                0x000000000043d930                __stpcpy_ssse3
 *fill*         0x000000000043f133        0xd 
 .text          0x000000000043f140      0x630 /usr/lib/gcc/x86_64-linux-gnu/10/../../../x86_64-linux-gnu/libc.a(strcpy-sse2-unaligned.o)
                0x000000000043f140                __strcpy_sse2_unaligned
 .text          0x000000000043f770      0x6b0 /usr/lib/gcc/x86_64-linux-gnu/10/../../../x86_64-linux-gnu/libc.a(stpcpy-sse2-unaligned.o)
                0x000000000043f770                __stpcpy_sse2_unaligned
 .text          0x000000000043fe20        0x0 /usr/lib/gcc/x86_64-linux-gnu/10/../../../x86_64-linux-gnu/libc.a(stpcpy-avx2.o)
 .text.avx      0x000000000043fe20      0x3ac /usr/lib/gcc/x86_64-linux-gnu/10/../../../x86_64-linux-gnu/libc.a(stpcpy-avx2.o)
                0x000000000043fe20                __stpcpy_avx2
 .text          0x00000000004401cc        0x0 /usr/lib/gcc/x86_64-linux-gnu/10/../../../x86_64-linux-gnu/libc.a(strchr-sse2-no-bsf.o)
 *fill*         0x00000000004401cc        0x4 
 .text.atom     0x00000000004401d0      0x315 /usr/lib/gcc/x86_64-linux-gnu/10/../../../x86_64-linux-gnu/libc.a(strchr-sse2-no-bsf.o)
                0x00000000004401d0                __strchr_sse2_no_bsf
 .text          0x00000000004404e5        0x0 /usr/lib/gcc/x86_64-linux-gnu/10/../../../x86_64-linux-gnu/libc.a(memcmp-ssse3.o)
 *fill*         0x00000000004404e5        0xb 
 .text.atom     0x00000000004404f0     0x1763 /usr/lib/gcc/x86_64-linux-gnu/10/../../../x86_64-linux-gnu/libc.a(memcmp-ssse3.o)
                0x00000000004404f0                __memcmp_ssse3
 *fill*         0x0000000000441c53        0xd 
 .text          0x0000000000441c60      0x493 /usr/lib/gcc/x86_64-linux-gnu/10/../../../x86_64-linux-gnu/libc.a(strstr-sse2-unaligned.o)
                0x0000000000441c60                __strstr_sse2_unaligned
 *fill*         0x00000000004420f3        0xd 
 .text          0x0000000000442100       0x97 /usr/lib/gcc/x86_64-linux-gnu/10/../../../x86_64-linux-gnu/libc.a(strcspn-sse2.o)
                0x0000000000442100                __strcspn_sse2
 .text          0x0000000000442197        0x0 /usr/lib/gcc/x86_64-linux-gnu/10/../../../x86_64-linux-gnu/libc.a(strcspn-c.o)
 *fill*         0x0000000000442197        0x9 
 .text.sse4.2   0x00000000004421a0      0x12f /usr/lib/gcc/x86_64-linux-gnu/10/../../../x86_64-linux-gnu/libc.a(strcspn-c.o)
                0x00000000004421a0                __strcspn_sse42
 .text          0x00000000004422cf        0x0 /usr/lib/gcc/x86_64-linux-gnu/10/../../../x86_64-linux-gnu/libc.a(varshift.o)
 .text          0x00000000004422cf        0x0 /usr/lib/gcc/x86_64-linux-gnu/10/../../../x86_64-linux-gnu/libc.a(memset-avx512-no-vzeroupper.o)
 *fill*         0x00000000004422cf        0x1 
 .text.avx512   0x00000000004422d0      0x280 /usr/lib/gcc/x86_64-linux-gnu/10/../../../x86_64-linux-gnu/libc.a(memset-avx512-no-vzeroupper.o)
                0x00000000004422d0                __memset_chk_avx512_no_vzeroupper
                0x00000000004422e0                __memset_avx512_no_vzeroupper
 .text          0x0000000000442550      0x3a9 /usr/lib/gcc/x86_64-linux-gnu/10/../../../x86_64-linux-gnu/libc.a(memmove-sse2-unaligned-erms.o)
                0x0000000000442550                __mempcpy_sse2_unaligned
                0x0000000000442560                __memmove_sse2_unaligned
                0x0000000000442560                __memcpy_sse2_unaligned
                0x0000000000442590                __mempcpy_chk_erms
                0x00000000004425a0                __mempcpy_erms
                0x00000000004425b0                __memcpy_chk_erms
                0x00000000004425b0                __memmove_chk_erms
                0x00000000004425c0                __memmove_erms
                0x00000000004425c0                __memcpy_erms
                0x00000000004425f0                __mempcpy_sse2_unaligned_erms
                0x0000000000442600                __memmove_sse2_unaligned_erms
                0x0000000000442600                __memcpy_sse2_unaligned_erms
 .text          0x00000000004428f9        0x0 /usr/lib/gcc/x86_64-linux-gnu/10/../../../x86_64-linux-gnu/libc.a(memmove-avx-unaligned-erms.o)
 *fill*         0x00000000004428f9        0x7 
 .text.avx      0x0000000000442900      0x437 /usr/lib/gcc/x86_64-linux-gnu/10/../../../x86_64-linux-gnu/libc.a(memmove-avx-unaligned-erms.o)
                0x0000000000442900                __mempcpy_avx_unaligned
                0x0000000000442910                __memcpy_avx_unaligned
                0x0000000000442910                __memmove_avx_unaligned
                0x0000000000442940                __mempcpy_avx_unaligned_erms
                0x0000000000442950                __memcpy_avx_unaligned_erms
                0x0000000000442950                __memmove_avx_unaligned_erms
 .text          0x0000000000442d37        0x0 /usr/lib/gcc/x86_64-linux-gnu/10/../../../x86_64-linux-gnu/libc.a(memmove-avx512-unaligned-erms.o)
 *fill*         0x0000000000442d37        0x9 
 .text.avx512   0x0000000000442d40      0x553 /usr/lib/gcc/x86_64-linux-gnu/10/../../../x86_64-linux-gnu/libc.a(memmove-avx512-unaligned-erms.o)
                0x0000000000442d40                __mempcpy_avx512_unaligned
                0x0000000000442d50                __memmove_avx512_unaligned
                0x0000000000442d50                __memcpy_avx512_unaligned
                0x0000000000442d90                __mempcpy_avx512_unaligned_erms
                0x0000000000442da0                __memmove_avx512_unaligned_erms
                0x0000000000442da0                __memcpy_avx512_unaligned_erms
 *fill*         0x0000000000443293        0xd 
 .text          0x00000000004432a0      0x173 /usr/lib/gcc/x86_64-linux-gnu/10/../../../x86_64-linux-gnu/libc.a(memset-sse2-unaligned-erms.o)
                0x00000000004432a0                __bzero
                0x00000000004432a0                bzero
                0x00000000004432b0                __wmemset_sse2_unaligned
                0x00000000004432d0                __memset_sse2_unaligned
                0x0000000000443300                __memset_chk_erms
                0x0000000000443310                __memset_erms
                0x0000000000443330                __memset_sse2_unaligned_erms
 .text          0x0000000000443413        0x0 /usr/lib/gcc/x86_64-linux-gnu/10/../../../x86_64-linux-gnu/libc.a(memset-avx2-unaligned-erms.o)
 *fill*         0x0000000000443413        0xd 
 .text.avx      0x0000000000443420      0x17b /usr/lib/gcc/x86_64-linux-gnu/10/../../../x86_64-linux-gnu/libc.a(memset-avx2-unaligned-erms.o)
                0x0000000000443420                __wmemset_avx2_unaligned
                0x0000000000443440                __memset_avx2_unaligned
                0x0000000000443470                __memset_avx2_erms
                0x0000000000443490                __memset_avx2_unaligned_erms
 .text          0x000000000044359b        0x0 /usr/lib/gcc/x86_64-linux-gnu/10/../../../x86_64-linux-gnu/libc.a(memset-avx512-unaligned-erms.o)
 *fill*         0x000000000044359b        0x5 
 .text.avx512   0x00000000004435a0      0x1d1 /usr/lib/gcc/x86_64-linux-gnu/10/../../../x86_64-linux-gnu/libc.a(memset-avx512-unaligned-erms.o)
                0x00000000004435a0                __wmemset_avx512_unaligned
                0x00000000004435c0                __memset_avx512_unaligned
                0x0000000000443600                __memset_avx512_erms
                0x0000000000443620                __memset_avx512_unaligned_erms
 *fill*         0x0000000000443771        0xf 
 .text          0x0000000000443780      0x5a5 /usr/lib/gcc/x86_64-linux-gnu/10/../../../x86_64-linux-gnu/libc.a(cacheinfo.o)
                0x0000000000443d00                __cache_sysconf
 *fill*         0x0000000000443d25        0xb 
 .text          0x0000000000443d30       0x43 /usr/lib/gcc/x86_64-linux-gnu/10/../../../x86_64-linux-gnu/libc.a(strcasecmp_l-nonascii.o)
                0x0000000000443d30                __strcasecmp_l_nonascii
 *fill*         0x0000000000443d73        0xd 
 .text          0x0000000000443d80        0x9 /usr/lib/gcc/x86_64-linux-gnu/10/../../../x86_64-linux-gnu/libc.a(wmempcpy.o)
                0x0000000000443d80                wmempcpy
                0x0000000000443d80                __wmempcpy
 *fill*         0x0000000000443d89        0x7 
 .text          0x0000000000443d90      0x1d4 /usr/lib/gcc/x86_64-linux-gnu/10/../../../x86_64-linux-gnu/libc.a(wcrtomb.o)
                0x0000000000443d90                __wcrtomb
                0x0000000000443d90                wcrtomb
 *fill*         0x0000000000443f64        0xc 
 .text          0x0000000000443f70       0x1e /usr/lib/gcc/x86_64-linux-gnu/10/../../../x86_64-linux-gnu/libc.a(mbsrtowcs.o)
                0x0000000000443f70                mbsrtowcs
                0x0000000000443f70                __mbsrtowcs
 *fill*         0x0000000000443f8e        0x2 
 .text          0x0000000000443f90      0x2ea /usr/lib/gcc/x86_64-linux-gnu/10/../../../x86_64-linux-gnu/libc.a(wcsrtombs.o)
                0x0000000000443f90                wcsrtombs
                0x0000000000443f90                __wcsrtombs
 *fill*         0x000000000044427a        0x6 
 .text          0x0000000000444280       0x41 /usr/lib/gcc/x86_64-linux-gnu/10/../../../x86_64-linux-gnu/libc.a(wcsnlen.o)
                0x0000000000444280                wcsnlen
                0x0000000000444280                __wcsnlen
 *fill*         0x00000000004442c1        0xf 
 .text          0x00000000004442d0      0x644 /usr/lib/gcc/x86_64-linux-gnu/10/../../../x86_64-linux-gnu/libc.a(wcsmbsload.o)
                0x00000000004442d0                _nl_cleanup_ctype
                0x0000000000444320                __wcsmbs_getfct
                0x00000000004443a0                __wcsmbs_load_conv
                0x00000000004446d0                __wcsmbs_clone_conv
                0x0000000000444810                __wcsmbs_named_conv
 *fill*         0x0000000000444914        0xc 
 .text          0x0000000000444920      0x365 /usr/lib/gcc/x86_64-linux-gnu/10/../../../x86_64-linux-gnu/libc.a(mbsrtowcs_l.o)
                0x0000000000444920                __mbsrtowcs_l
 *fill*         0x0000000000444c85        0xb 
 .text          0x0000000000444c90      0x21c /usr/lib/gcc/x86_64-linux-gnu/10/../../../x86_64-linux-gnu/libc.a(wcsnlen-sse4_1.o)
                0x0000000000444c90                __wcsnlen_sse4_1
 *fill*         0x0000000000444eac        0x4 
 .text          0x0000000000444eb0       0x2e /usr/lib/gcc/x86_64-linux-gnu/10/../../../x86_64-linux-gnu/libc.a(wcsnlen-c.o)
                0x0000000000444eb0                __wcsnlen_sse2
 .text          0x0000000000444ede        0x0 /usr/lib/gcc/x86_64-linux-gnu/10/../../../x86_64-linux-gnu/libc.a(wcsnlen-avx2.o)
 *fill*         0x0000000000444ede        0x2 
 .text.avx      0x0000000000444ee0      0x342 /usr/lib/gcc/x86_64-linux-gnu/10/../../../x86_64-linux-gnu/libc.a(wcsnlen-avx2.o)
                0x0000000000444ee0                __wcsnlen_avx2
 *fill*         0x0000000000445222        0xe 
 .text          0x0000000000445230       0x48 /usr/lib/gcc/x86_64-linux-gnu/10/../../../x86_64-linux-gnu/libc.a(_exit.o)
                0x0000000000445230                _Exit
                0x0000000000445230                _exit
 *fill*         0x0000000000445278        0x8 
 .text          0x0000000000445280      0x530 /usr/lib/gcc/x86_64-linux-gnu/10/../../../x86_64-linux-gnu/libc.a(sysconf.o)
                0x0000000000445380                sysconf
                0x0000000000445380                __sysconf
 .text          0x00000000004457b0       0x21 /usr/lib/gcc/x86_64-linux-gnu/10/../../../x86_64-linux-gnu/libc.a(sched_yield.o)
                0x00000000004457b0                __sched_yield
                0x00000000004457b0                sched_yield
 *fill*         0x00000000004457d1        0xf 
 .text          0x00000000004457e0       0x4e /usr/lib/gcc/x86_64-linux-gnu/10/../../../x86_64-linux-gnu/libc.a(get_child_max.o)
                0x00000000004457e0                __get_child_max
 .text          0x000000000044582e        0x0 /usr/lib/gcc/x86_64-linux-gnu/10/../../../x86_64-linux-gnu/libc.a(environ.o)
 *fill*         0x000000000044582e        0x2 
 .text          0x0000000000445830       0x4c /usr/lib/gcc/x86_64-linux-gnu/10/../../../x86_64-linux-gnu/libc.a(xstat.o)
                0x0000000000445830                _xstat
                0x0000000000445830                __xstat64
                0x0000000000445830                __xstat
 *fill*         0x000000000044587c        0x4 
 .text          0x0000000000445880       0x4c /usr/lib/gcc/x86_64-linux-gnu/10/../../../x86_64-linux-gnu/libc.a(fxstat.o)
                0x0000000000445880                __fxstat64
                0x0000000000445880                _fxstat
                0x0000000000445880                __fxstat
 *fill*         0x00000000004458cc        0x4 
 .text          0x00000000004458d0      0x128 /usr/lib/gcc/x86_64-linux-gnu/10/../../../x86_64-linux-gnu/libc.a(open64.o)
                0x00000000004458d0                __open
                0x00000000004458d0                __libc_open64
                0x00000000004458d0                __libc_open
                0x00000000004458d0                open64
                0x00000000004458d0                open
                0x00000000004458d0                __open64
 *fill*         0x00000000004459f8        0x8 
 .text          0x0000000000445a00       0x9d /usr/lib/gcc/x86_64-linux-gnu/10/../../../x86_64-linux-gnu/libc.a(read.o)
                0x0000000000445a00                __read
                0x0000000000445a00                __libc_read
                0x0000000000445a00                read
 *fill*         0x0000000000445a9d        0x3 
 .text          0x0000000000445aa0       0x9d /usr/lib/gcc/x86_64-linux-gnu/10/../../../x86_64-linux-gnu/libc.a(write.o)
                0x0000000000445aa0                __write
                0x0000000000445aa0                write
                0x0000000000445aa0                __libc_write
 *fill*         0x0000000000445b3d        0x3 
 .text          0x0000000000445b40       0x24 /usr/lib/gcc/x86_64-linux-gnu/10/../../../x86_64-linux-gnu/libc.a(lseek64.o)
                0x0000000000445b40                __lseek64
                0x0000000000445b40                lseek
                0x0000000000445b40                __libc_lseek64
                0x0000000000445b40                __lseek
                0x0000000000445b40                __libc_lseek
                0x0000000000445b40                lseek64
 *fill*         0x0000000000445b64        0xc 
 .text          0x0000000000445b70      0x735 /usr/lib/gcc/x86_64-linux-gnu/10/../../../x86_64-linux-gnu/libc.a(getcwd.o)
                0x0000000000445b70                __getcwd
                0x0000000000445b70                getcwd
 *fill*         0x00000000004462a5        0xb 
 .text          0x00000000004462b0       0x22 /usr/lib/gcc/x86_64-linux-gnu/10/../../../x86_64-linux-gnu/libc.a(close_nocancel.o)
                0x00000000004462b0                __close_nocancel
 *fill*         0x00000000004462d2        0xe 
 .text          0x00000000004462e0      0x130 /usr/lib/gcc/x86_64-linux-gnu/10/../../../x86_64-linux-gnu/libc.a(fcntl_nocancel.o)
                0x00000000004462e0                __fcntl64_nocancel
                0x0000000000446390                __fcntl64_nocancel_adjusted
 .text          0x0000000000446410       0xa8 /usr/lib/gcc/x86_64-linux-gnu/10/../../../x86_64-linux-gnu/libc.a(open64_nocancel.o)
                0x0000000000446410                __open_nocancel
                0x0000000000446410                __open64_nocancel
 *fill*         0x00000000004464b8        0x8 
 .text          0x00000000004464c0       0x98 /usr/lib/gcc/x86_64-linux-gnu/10/../../../x86_64-linux-gnu/libc.a(openat64_nocancel.o)
                0x00000000004464c0                __openat64_nocancel
                0x00000000004464c0                __openat_nocancel
 *fill*         0x0000000000446558        0x8 
 .text          0x0000000000446560       0x24 /usr/lib/gcc/x86_64-linux-gnu/10/../../../x86_64-linux-gnu/libc.a(read_nocancel.o)
                0x0000000000446560                __read_nocancel
 *fill*         0x0000000000446584        0xc 
 .text          0x0000000000446590       0x24 /usr/lib/gcc/x86_64-linux-gnu/10/../../../x86_64-linux-gnu/libc.a(write_nocancel.o)
                0x0000000000446590                __write_nocancel
 *fill*         0x00000000004465b4        0xc 
 .text          0x00000000004465c0       0x32 /usr/lib/gcc/x86_64-linux-gnu/10/../../../x86_64-linux-gnu/libc.a(getrlimit64.o)
                0x00000000004465c0                getrlimit
                0x00000000004465c0                getrlimit64
                0x00000000004465c0                __getrlimit
                0x00000000004465c0                __GI___getrlimit
                0x00000000004465c0                __GI_getrlimit
                0x00000000004465c0                __getrlimit64
 *fill*         0x00000000004465f2        0xe 
 .text          0x0000000000446600       0x8b /usr/lib/gcc/x86_64-linux-gnu/10/../../../x86_64-linux-gnu/libc.a(sbrk.o)
                0x0000000000446600                sbrk
                0x0000000000446600                __sbrk
 *fill*         0x000000000044668b        0x5 
 .text          0x0000000000446690       0x2d /usr/lib/gcc/x86_64-linux-gnu/10/../../../x86_64-linux-gnu/libc.a(getpagesize.o)
                0x0000000000446690                getpagesize
                0x0000000000446690                __getpagesize
 *fill*         0x00000000004466bd        0x3 
 .text          0x00000000004466c0       0x46 /usr/lib/gcc/x86_64-linux-gnu/10/../../../x86_64-linux-gnu/libc.a(getdtsz.o)
                0x00000000004466c0                __getdtablesize
                0x00000000004466c0                getdtablesize
 *fill*         0x0000000000446706        0xa 
 .text          0x0000000000446710       0xa5 /usr/lib/gcc/x86_64-linux-gnu/10/../../../x86_64-linux-gnu/libc.a(mmap64.o)
                0x0000000000446710                __mmap
                0x0000000000446710                mmap
                0x0000000000446710                __mmap64
                0x0000000000446710                mmap64
 *fill*         0x00000000004467b5        0xb 
 .text          0x00000000004467c0       0x21 /usr/lib/gcc/x86_64-linux-gnu/10/../../../x86_64-linux-gnu/libc.a(munmap.o)
                0x00000000004467c0                munmap
                0x00000000004467c0                __munmap
 *fill*         0x00000000004467e1        0xf 
 .text          0x00000000004467f0       0x21 /usr/lib/gcc/x86_64-linux-gnu/10/../../../x86_64-linux-gnu/libc.a(mprotect.o)
                0x00000000004467f0                __mprotect
                0x00000000004467f0                mprotect
 *fill*         0x0000000000446811        0xf 
 .text          0x0000000000446820       0x21 /usr/lib/gcc/x86_64-linux-gnu/10/../../../x86_64-linux-gnu/libc.a(madvise.o)
                0x0000000000446820                madvise
                0x0000000000446820                __madvise
 *fill*         0x0000000000446841        0xf 
 .text          0x0000000000446850      0xad1 /usr/lib/gcc/x86_64-linux-gnu/10/../../../x86_64-linux-gnu/libc.a(tsearch.o)
                0x0000000000446b30                tsearch
                0x0000000000446b30                __tsearch
                0x0000000000446cd0                tfind
                0x0000000000446cd0                __tfind
                0x0000000000446d40                tdelete
                0x0000000000446d40                __tdelete
                0x00000000004472d0                __twalk
                0x00000000004472d0                twalk
                0x00000000004472f0                twalk_r
                0x00000000004472f0                __twalk_r
                0x0000000000447310                __tdestroy
                0x0000000000447310                tdestroy
 *fill*         0x0000000000447321        0xf 
 .text          0x0000000000447330      0x6ce /usr/lib/gcc/x86_64-linux-gnu/10/../../../x86_64-linux-gnu/libc.a(getsysstats.o)
                0x00000000004474c0                __get_nprocs
                0x00000000004474c0                get_nprocs
                0x00000000004477e0                __get_nprocs_conf
                0x00000000004477e0                get_nprocs_conf
                0x00000000004478e0                get_phys_pages
                0x00000000004478e0                __get_phys_pages
                0x0000000000447970                get_avphys_pages
                0x0000000000447970                __get_avphys_pages
 *fill*         0x00000000004479fe        0x2 
 .text          0x0000000000447a00       0x11 /usr/lib/gcc/x86_64-linux-gnu/10/../../../x86_64-linux-gnu/libc.a(getclktck.o)
                0x0000000000447a00                __getclktck
 *fill*         0x0000000000447a11        0xf 
 .text          0x0000000000447a20       0x51 /usr/lib/gcc/x86_64-linux-gnu/10/../../../x86_64-linux-gnu/libc.a(init-misc.o)
                0x0000000000447a20                __init_misc
 *fill*         0x0000000000447a71        0xf 
 .text          0x0000000000447a80       0x24 /usr/lib/gcc/x86_64-linux-gnu/10/../../../x86_64-linux-gnu/libc.a(mremap.o)
                0x0000000000447a80                mremap
                0x0000000000447a80                __mremap
 *fill*         0x0000000000447aa4        0xc 
 .text          0x0000000000447ab0       0x21 /usr/lib/gcc/x86_64-linux-gnu/10/../../../x86_64-linux-gnu/libc.a(sysinfo.o)
                0x0000000000447ab0                sysinfo
                0x0000000000447ab0                __sysinfo
 *fill*         0x0000000000447ad1        0xf 
 .text          0x0000000000447ae0       0x85 /usr/lib/gcc/x86_64-linux-gnu/10/../../../x86_64-linux-gnu/libc.a(wctrans.o)
                0x0000000000447ae0                __wctrans
                0x0000000000447ae0                wctrans
 *fill*         0x0000000000447b65        0xb 
 .text          0x0000000000447b70       0x45 /usr/lib/gcc/x86_64-linux-gnu/10/../../../x86_64-linux-gnu/libc.a(towctrans.o)
                0x0000000000447b70                towctrans
                0x0000000000447b70                __towctrans
 *fill*         0x0000000000447bb5        0xb 
 .text          0x0000000000447bc0       0x10 /usr/lib/gcc/x86_64-linux-gnu/10/../../../x86_64-linux-gnu/libc.a(chk_fail.o)
                0x0000000000447bc0                __chk_fail
 .text          0x0000000000447bd0      0x210 /usr/lib/gcc/x86_64-linux-gnu/10/../../../x86_64-linux-gnu/libc.a(readonly-area.o)
                0x0000000000447bd0                __readonly_area
 .text          0x0000000000447de0       0x10 /usr/lib/gcc/x86_64-linux-gnu/10/../../../x86_64-linux-gnu/libc.a(stack_chk_fail.o)
                0x0000000000447de0                __stack_chk_fail_local
                0x0000000000447de0                __stack_chk_fail
 .text          0x0000000000447df0       0x24 /usr/lib/gcc/x86_64-linux-gnu/10/../../../x86_64-linux-gnu/libc.a(fortify_fail.o)
                0x0000000000447df0                __fortify_fail
 *fill*         0x0000000000447e14        0xc 
 .text          0x0000000000447e20       0x8c /usr/lib/gcc/x86_64-linux-gnu/10/../../../x86_64-linux-gnu/libc.a(dl-debug.o)
                0x0000000000447e20                _dl_debug_state
                0x0000000000447e30                _dl_debug_initialize
 *fill*         0x0000000000447eac        0x4 
 .text          0x0000000000447eb0      0x86d /usr/lib/gcc/x86_64-linux-gnu/10/../../../x86_64-linux-gnu/libc.a(dl-tls.o)
                0x0000000000447ee0                _dl_tls_static_surplus_init
                0x0000000000447f80                _dl_next_tls_modid
                0x0000000000448070                _dl_count_modids
                0x00000000004480e0                _dl_get_tls_static_info
                0x0000000000448100                _dl_allocate_tls_storage
                0x00000000004481d0                _dl_allocate_tls_init
                0x00000000004484c0                _dl_allocate_tls
                0x0000000000448530                _dl_deallocate_tls
                0x00000000004485b0                _dl_tls_get_addr_soft
                0x0000000000448630                _dl_add_to_slotinfo
 *fill*         0x000000000044871d        0x3 
 .text          0x0000000000448720      0x6a5 /usr/lib/gcc/x86_64-linux-gnu/10/../../../x86_64-linux-gnu/libc.a(dl-tunables.o)
                0x0000000000448770                __tunable_set_val
                0x0000000000448790                __tunables_init
                0x0000000000448d60                __tunable_get_val
 *fill*         0x0000000000448dc5        0xb 
 .text          0x0000000000448dd0     0x10c8 /usr/lib/gcc/x86_64-linux-gnu/10/../../../x86_64-linux-gnu/libc.a(dl-support.o)
                0x0000000000448dd0                _dl_aux_init
                0x00000000004491f0                _dl_non_dynamic_init
                0x0000000000449e90                _dl_get_dl_main_map
 *fill*         0x0000000000449e98        0x8 
 .text          0x0000000000449ea0       0x4e /usr/lib/gcc/x86_64-linux-gnu/10/../../../x86_64-linux-gnu/libc.a(enbl-secure.o)
                0x0000000000449ea0                __libc_init_secure
 *fill*         0x0000000000449eee        0x2 
 .text          0x0000000000449ef0       0x31 /usr/lib/gcc/x86_64-linux-gnu/10/../../../x86_64-linux-gnu/libc.a(dl-profstub.o)
                0x0000000000449ef0                _dl_mcount_wrapper
                0x0000000000449f00                _dl_mcount_wrapper_check
 *fill*         0x0000000000449f21        0xf 
 .text          0x0000000000449f30      0xce9 /usr/lib/gcc/x86_64-linux-gnu/10/../../../x86_64-linux-gnu/libc.a(dl-sysdep.o)
                0x0000000000449f30                _dl_tunable_set_hwcaps
                0x000000000044ab20                _dl_discover_osversion
 *fill*         0x000000000044ac19        0x7 
 .text          0x000000000044ac20      0x2e6 /usr/lib/gcc/x86_64-linux-gnu/10/../../../x86_64-linux-gnu/libc.a(dl-error.o)
                0x000000000044ace0                _dl_signal_exception
                0x000000000044ad30                _dl_signal_error
                0x000000000044ad90                _dl_catch_exception
                0x000000000044aea0                _dl_catch_error
 *fill*         0x000000000044af06        0xa 
 .text          0x000000000044af10       0x81 /usr/lib/gcc/x86_64-linux-gnu/10/../../../x86_64-linux-gnu/libc.a(init-first.o)
                0x000000000044af10                __libc_init_first
 *fill*         0x000000000044af91        0xf 
 .text          0x000000000044afa0      0x315 /usr/lib/gcc/x86_64-linux-gnu/10/../../../x86_64-linux-gnu/libc.a(gconv_open.o)
                0x000000000044afa0                __gconv_open
 *fill*         0x000000000044b2b5        0xb 
 .text          0x000000000044b2c0      0x202 /usr/lib/gcc/x86_64-linux-gnu/10/../../../x86_64-linux-gnu/libc.a(gconv.o)
                0x000000000044b2c0                __gconv
 *fill*         0x000000000044b4c2        0xe 
 .text          0x000000000044b4d0       0x5a /usr/lib/gcc/x86_64-linux-gnu/10/../../../x86_64-linux-gnu/libc.a(gconv_close.o)
                0x000000000044b4d0                __gconv_close
 *fill*         0x000000000044b52a        0x6 
 .text          0x000000000044b530     0x113e /usr/lib/gcc/x86_64-linux-gnu/10/../../../x86_64-linux-gnu/libc.a(gconv_db.o)
                0x000000000044b530                __gconv_alias_compare
                0x000000000044b580                __gconv_get_modules_db
                0x000000000044b590                __gconv_get_alias_db
                0x000000000044b5a0                __gconv_release_step
                0x000000000044c130                __gconv_compare_alias
                0x000000000044c210                __gconv_find_transform
                0x000000000044c520                __gconv_close_transform
 *fill*         0x000000000044c66e        0x2 
 .text          0x000000000044c670      0xd75 /usr/lib/gcc/x86_64-linux-gnu/10/../../../x86_64-linux-gnu/libc.a(gconv_conf.o)
                0x000000000044d3a0                __gconv_load_conf
 *fill*         0x000000000044d3e5        0xb 
 .text          0x000000000044d3f0       0xe3 /usr/lib/gcc/x86_64-linux-gnu/10/../../../x86_64-linux-gnu/libc.a(gconv_builtin.o)
                0x000000000044d3f0                __gconv_get_builtin_trans
 *fill*         0x000000000044d4d3        0xd 
 .text          0x000000000044d4e0     0x695a /usr/lib/gcc/x86_64-linux-gnu/10/../../../x86_64-linux-gnu/libc.a(gconv_simple.o)
                0x000000000044d4e0                __gconv_btwoc_ascii
                0x000000000044d4f0                __gconv_transform_internal_ucs4
                0x000000000044da40                __gconv_transform_ucs4_internal
                0x000000000044e070                __gconv_transform_internal_ucs4le
                0x000000000044e5a0                __gconv_transform_ucs4le_internal
                0x000000000044ec20                __gconv_transform_ascii_internal
                0x000000000044f0b0                __gconv_transform_internal_ascii
                0x000000000044fc80                __gconv_transform_internal_utf8
                0x0000000000450960                __gconv_transform_utf8_internal
                0x0000000000451650                __gconv_transform_ucs2_internal
                0x0000000000451db0                __gconv_transform_internal_ucs2
                0x0000000000452a30                __gconv_transform_ucs2reverse_internal
                0x00000000004531b0                __gconv_transform_internal_ucs2reverse
 *fill*         0x0000000000453e3a        0x6 
 .text          0x0000000000453e40      0x4b4 /usr/lib/gcc/x86_64-linux-gnu/10/../../../x86_64-linux-gnu/libc.a(gconv_trans.o)
                0x0000000000453e40                __gconv_transliterate
 *fill*         0x00000000004542f4        0xc 
 .text          0x0000000000454300      0x9a1 /usr/lib/gcc/x86_64-linux-gnu/10/../../../x86_64-linux-gnu/libc.a(gconv_cache.o)
                0x00000000004544f0                __gconv_get_cache
                0x0000000000454500                __gconv_load_cache
                0x0000000000454710                __gconv_compare_alias_cache
                0x00000000004547b0                __gconv_lookup_cache
                0x0000000000454c90                __gconv_release_cache
 *fill*         0x0000000000454ca1        0xf 
 .text          0x0000000000454cb0      0x2a6 /usr/lib/gcc/x86_64-linux-gnu/10/../../../x86_64-linux-gnu/libc.a(gconv_dl.o)
                0x0000000000454d40                __gconv_find_shlib
                0x0000000000454f40                __gconv_release_shlib
 *fill*         0x0000000000454f56        0xa 
 .text          0x0000000000454f60      0x446 /usr/lib/gcc/x86_64-linux-gnu/10/../../../x86_64-linux-gnu/libc.a(gconv_charset.o)
                0x00000000004550b0                __gconv_create_spec
                0x0000000000455390                __gconv_destroy_spec
 *fill*         0x00000000004553a6        0xa 
 .text          0x00000000004553b0      0x8a9 /usr/lib/gcc/x86_64-linux-gnu/10/../../../x86_64-linux-gnu/libc.a(setlocale.o)
                0x00000000004555b0                setlocale
 *fill*         0x0000000000455c59        0x7 
 .text          0x0000000000455c60      0x851 /usr/lib/gcc/x86_64-linux-gnu/10/../../../x86_64-linux-gnu/libc.a(findlocale.o)
                0x0000000000455c60                _nl_find_locale
                0x0000000000456460                _nl_remove_locale
 *fill*         0x00000000004564b1        0xf 
 .text          0x00000000004564c0      0x606 /usr/lib/gcc/x86_64-linux-gnu/10/../../../x86_64-linux-gnu/libc.a(loadlocale.o)
                0x00000000004564c0                _nl_intern_locale_data
                0x0000000000456710                _nl_load_locale
                0x0000000000456a70                _nl_unload_locale
 *fill*         0x0000000000456ac6        0xa 
 .text          0x0000000000456ad0      0x565 /usr/lib/gcc/x86_64-linux-gnu/10/../../../x86_64-linux-gnu/libc.a(loadarchive.o)
                0x0000000000456ad0                _nl_load_locale_from_archive
 *fill*         0x0000000000457035        0xb 
 .text          0x0000000000457040       0x7a /usr/lib/gcc/x86_64-linux-gnu/10/../../../x86_64-linux-gnu/libc.a(lc-ctype.o)
                0x0000000000457040                _nl_postload_ctype
 .text          0x00000000004570ba        0x0 /usr/lib/gcc/x86_64-linux-gnu/10/../../../x86_64-linux-gnu/libc.a(lc-numeric.o)
 .text          0x00000000004570ba        0x0 /usr/lib/gcc/x86_64-linux-gnu/10/../../../x86_64-linux-gnu/libc.a(C-ctype.o)
 .text          0x00000000004570ba        0x0 /usr/lib/gcc/x86_64-linux-gnu/10/../../../x86_64-linux-gnu/libc.a(SYS_libc.o)
 .text          0x00000000004570ba        0x0 /usr/lib/gcc/x86_64-linux-gnu/10/../../../x86_64-linux-gnu/libc.a(C_name.o)
 .text          0x00000000004570ba        0x0 /usr/lib/gcc/x86_64-linux-gnu/10/../../../x86_64-linux-gnu/libc.a(xlocale.o)
 *fill*         0x00000000004570ba        0x6 
 .text          0x00000000004570c0       0x17 /usr/lib/gcc/x86_64-linux-gnu/10/../../../x86_64-linux-gnu/libc.a(localename.o)
                0x00000000004570c0                __current_locale_name
 .text          0x00000000004570d7        0x0 /usr/lib/gcc/x86_64-linux-gnu/10/../../../x86_64-linux-gnu/libc.a(global-locale.o)
 *fill*         0x00000000004570d7        0x9 
 .text          0x00000000004570e0       0xb0 /usr/lib/gcc/x86_64-linux-gnu/10/../../../x86_64-linux-gnu/libc.a(ctype-info.o)
                0x00000000004570e0                __ctype_b_loc
                0x0000000000457100                __ctype_toupper_loc
                0x0000000000457120                __ctype_tolower_loc
                0x0000000000457140                __ctype_init
 .text          0x0000000000457190       0x4d /usr/lib/gcc/x86_64-linux-gnu/10/../../../x86_64-linux-gnu/libc.a(setfpucw.o)
                0x0000000000457190                __setfpucw
 .text          0x00000000004571dd        0x0 /usr/lib/gcc/x86_64-linux-gnu/10/../../../x86_64-linux-gnu/libc.a(fpu_control.o)
 *fill*         0x00000000004571dd        0x3 
 .text          0x00000000004571e0       0x57 /usr/lib/gcc/x86_64-linux-gnu/10/../../../x86_64-linux-gnu/libc.a(setjmp.o)
                0x00000000004571e0                __sigsetjmp
 *fill*         0x0000000000457237        0x9 
 .text          0x0000000000457240       0x2c /usr/lib/gcc/x86_64-linux-gnu/10/../../../x86_64-linux-gnu/libc.a(sigjmp.o)
                0x0000000000457240                __sigjmp_save
 *fill*         0x000000000045726c        0x4 
 .text          0x0000000000457270       0x50 /usr/lib/gcc/x86_64-linux-gnu/10/../../../x86_64-linux-gnu/libc.a(__longjmp.o)
                0x0000000000457270                __longjmp
 .text          0x00000000004572c0      0x22c /usr/lib/gcc/x86_64-linux-gnu/10/../../../x86_64-linux-gnu/libc.a(sigaction.o)
                0x00000000004572e0                __libc_sigaction
                0x00000000004574c0                sigaction
                0x00000000004574c0                __sigaction
 *fill*         0x00000000004574ec        0x4 
 .text          0x00000000004574f0       0xfb /usr/lib/gcc/x86_64-linux-gnu/10/../../../x86_64-linux-gnu/libc.a(sigprocmask.o)
                0x00000000004574f0                __sigprocmask
                0x00000000004574f0                sigprocmask
 *fill*         0x00000000004575eb        0x5 
 .text          0x00000000004575f0      0x484 /usr/lib/gcc/x86_64-linux-gnu/10/../../../x86_64-linux-gnu/libc.a(qsort.o)
                0x00000000004575f0                _quicksort
 *fill*         0x0000000000457a74        0xc 
 .text          0x0000000000457a80      0x64e /usr/lib/gcc/x86_64-linux-gnu/10/../../../x86_64-linux-gnu/libc.a(setenv.o)
                0x0000000000457a80                __add_to_environ
                0x0000000000457e40                setenv
                0x0000000000457e40                __setenv
                0x0000000000457ea0                unsetenv
                0x0000000000457ea0                __unsetenv
                0x0000000000458000                clearenv
                0x0000000000458000                __clearenv
 *fill*         0x00000000004580ce        0x2 
 .text          0x00000000004580d0       0x13 /usr/lib/gcc/x86_64-linux-gnu/10/../../../x86_64-linux-gnu/libc.a(secure-getenv.o)
                0x00000000004580d0                secure_getenv
                0x00000000004580d0                __libc_secure_getenv
 *fill*         0x00000000004580e3        0xd 
 .text          0x00000000004580f0       0x22 /usr/lib/gcc/x86_64-linux-gnu/10/../../../x86_64-linux-gnu/libc.a(strtol.o)
                0x00000000004580f0                __strtol_internal
                0x00000000004580f0                __strtoll_internal
                0x0000000000458100                strtoll
                0x0000000000458100                strtoq
                0x0000000000458100                strtol
                0x0000000000458100                __strtol
 *fill*         0x0000000000458112        0xe 
 .text          0x0000000000458120      0x51a /usr/lib/gcc/x86_64-linux-gnu/10/../../../x86_64-linux-gnu/libc.a(strtol_l.o)
                0x0000000000458120                ____strtol_l_internal
                0x0000000000458120                ____strtoll_l_internal
                0x0000000000458630                strtoll_l
                0x0000000000458630                strtol_l
                0x0000000000458630                __strtoll_l
                0x0000000000458630                __strtol_l
 *fill*         0x000000000045863a        0x6 
 .text          0x0000000000458640      0x142 /usr/lib/gcc/x86_64-linux-gnu/10/../../../x86_64-linux-gnu/libc.a(_itoa.o)
                0x0000000000458640                _itoa_word
                0x0000000000458720                _fitoa_word
 .text          0x0000000000458782        0x0 /usr/lib/gcc/x86_64-linux-gnu/10/../../../x86_64-linux-gnu/libc.a(itoa-digits.o)
 .text          0x0000000000458782        0x0 /usr/lib/gcc/x86_64-linux-gnu/10/../../../x86_64-linux-gnu/libc.a(itoa-udigits.o)
 *fill*         0x0000000000458782        0xe 
 .text          0x0000000000458790     0x2ed6 /usr/lib/gcc/x86_64-linux-gnu/10/../../../x86_64-linux-gnu/libc.a(printf_fp.o)
                0x0000000000458c00                __printf_fp_l
                0x000000000045b600                ___printf_fp
                0x000000000045b600                __printf_fp
                0x000000000045b620                __guess_grouping
 *fill*         0x000000000045b666        0xa 
 .text          0x000000000045b670      0x135 /usr/lib/gcc/x86_64-linux-gnu/10/../../../x86_64-linux-gnu/libc.a(reg-printf.o)
                0x000000000045b670                __register_printf_specifier
                0x000000000045b670                register_printf_specifier
                0x000000000045b7a0                __register_printf_function
                0x000000000045b7a0                register_printf_function
 *fill*         0x000000000045b7a5        0xb 
 .text          0x000000000045b7b0     0x1cde /usr/lib/gcc/x86_64-linux-gnu/10/../../../x86_64-linux-gnu/libc.a(printf_fphex.o)
                0x000000000045b7b0                __printf_fphex
 *fill*         0x000000000045d48e        0x2 
 .text          0x000000000045d490      0x344 /usr/lib/gcc/x86_64-linux-gnu/10/../../../x86_64-linux-gnu/libc.a(reg-modifier.o)
                0x000000000045d490                __register_printf_modifier
                0x000000000045d490                register_printf_modifier
                0x000000000045d640                __handle_registered_modifier_mb
                0x000000000045d710                __handle_registered_modifier_wc
 *fill*         0x000000000045d7d4        0xc 
 .text          0x000000000045d7e0      0x109 /usr/lib/gcc/x86_64-linux-gnu/10/../../../x86_64-linux-gnu/libc.a(reg-type.o)
                0x000000000045d7e0                __register_printf_type
                0x000000000045d7e0                register_printf_type
 *fill*         0x000000000045d8e9        0x7 
 .text          0x000000000045d8f0       0x4d /usr/lib/gcc/x86_64-linux-gnu/10/../../../x86_64-linux-gnu/libc.a(funlockfile.o)
                0x000000000045d8f0                _IO_funlockfile
                0x000000000045d8f0                funlockfile
                0x000000000045d8f0                __funlockfile
 *fill*         0x000000000045d93d        0x3 
 .text          0x000000000045d940     0x5c19 /usr/lib/gcc/x86_64-linux-gnu/10/../../../x86_64-linux-gnu/libc.a(vfwprintf-internal.o)
                0x0000000000460570                __vfwprintf_internal
 .text          0x0000000000463559        0x0 /usr/lib/gcc/x86_64-linux-gnu/10/../../../x86_64-linux-gnu/libc.a(errlist.o)
 *fill*         0x0000000000463559        0x7 
 .text          0x0000000000463560      0x658 /usr/lib/gcc/x86_64-linux-gnu/10/../../../x86_64-linux-gnu/libc.a(printf-parsewc.o)
                0x00000000004635e0                __parse_one_specwc
 *fill*         0x0000000000463bb8        0x8 
 .text          0x0000000000463bc0      0x15f /usr/lib/gcc/x86_64-linux-gnu/10/../../../x86_64-linux-gnu/libc.a(filedoalloc.o)
                0x0000000000463bc0                _IO_file_doallocate
 *fill*         0x0000000000463d1f        0x1 
 .text          0x0000000000463d20      0x17c /usr/lib/gcc/x86_64-linux-gnu/10/../../../x86_64-linux-gnu/libc.a(iofputs.o)
                0x0000000000463d20                _IO_fputs
                0x0000000000463d20                fputs
 *fill*         0x0000000000463e9c        0x4 
 .text          0x0000000000463ea0       0x7c /usr/lib/gcc/x86_64-linux-gnu/10/../../../x86_64-linux-gnu/libc.a(wfiledoalloc.o)
                0x0000000000463ea0                _IO_wfile_doallocate
 *fill*         0x0000000000463f1c        0x4 
 .text          0x0000000000463f20      0x1c6 /usr/lib/gcc/x86_64-linux-gnu/10/../../../x86_64-linux-gnu/libc.a(iofwrite.o)
                0x0000000000463f20                _IO_fwrite
                0x0000000000463f20                fwrite
 *fill*         0x00000000004640e6        0xa 
 .text          0x00000000004640f0      0x2dd /usr/lib/gcc/x86_64-linux-gnu/10/../../../x86_64-linux-gnu/libc.a(iogetdelim.o)
                0x00000000004640f0                __getdelim
                0x00000000004640f0                getdelim
                0x00000000004640f0                _IO_getdelim
 *fill*         0x00000000004643cd        0x3 
 .text          0x00000000004643d0      0x1a8 /usr/lib/gcc/x86_64-linux-gnu/10/../../../x86_64-linux-gnu/libc.a(iogetline.o)
                0x00000000004643d0                _IO_getline_info
                0x0000000000464570                _IO_getline
 *fill*         0x0000000000464578        0x8 
 .text          0x0000000000464580      0x135 /usr/lib/gcc/x86_64-linux-gnu/10/../../../x86_64-linux-gnu/libc.a(iowpadn.o)
                0x0000000000464580                _IO_wpadn
 *fill*         0x00000000004646b5        0xb 
 .text          0x00000000004646c0     0x1101 /usr/lib/gcc/x86_64-linux-gnu/10/../../../x86_64-linux-gnu/libc.a(wgenops.o)
                0x0000000000464900                _IO_least_wmarker
                0x0000000000464940                _IO_switch_to_main_wget_area
                0x0000000000464980                _IO_switch_to_wbackup_area
                0x00000000004649c0                _IO_wsetb
                0x0000000000464a30                _IO_wdefault_pbackfail
                0x0000000000464be0                _IO_wdefault_finish
                0x0000000000464c60                _IO_wdefault_uflow
                0x0000000000464cd0                __woverflow
                0x0000000000464d50                _IO_wdefault_xsputn
                0x0000000000464ec0                _IO_wdoallocbuf
                0x0000000000464f60                _IO_wdefault_doallocate
                0x0000000000464fe0                _IO_switch_to_wget_mode
                0x0000000000465060                _IO_free_wbackup_area
                0x00000000004650d0                __wuflow
                0x0000000000465240                __wunderflow
                0x00000000004653a0                _IO_wdefault_xsgetn
                0x0000000000465490                _IO_sputbackwc
                0x0000000000465510                _IO_sungetwc
                0x0000000000465590                _IO_adjust_wcolumn
                0x00000000004655d0                _IO_init_wmarker
                0x0000000000465640                _IO_wmarker_delta
                0x0000000000465690                _IO_seekwmark
                0x0000000000465740                _IO_unsave_wmarkers
 *fill*         0x00000000004657c1        0xf 
 .text          0x00000000004657d0       0xb9 /usr/lib/gcc/x86_64-linux-gnu/10/../../../x86_64-linux-gnu/libc.a(libc-cancellation.o)
                0x00000000004657d0                __libc_enable_asynccancel
                0x0000000000465830                __libc_disable_asynccancel
 *fill*         0x0000000000465889        0x7 
 .text          0x0000000000465890       0x41 /usr/lib/gcc/x86_64-linux-gnu/10/../../../x86_64-linux-gnu/libc.a(strndup.o)
                0x0000000000465890                strndup
                0x0000000000465890                __strndup
 *fill*         0x00000000004658d1        0xf 
 .text          0x00000000004658e0       0x31 /usr/lib/gcc/x86_64-linux-gnu/10/../../../x86_64-linux-gnu/libc.a(strrchr.o)
                0x00000000004658e0                strrchr
                0x00000000004658e0                rindex
 *fill*         0x0000000000465911        0xf 
 .text          0x0000000000465920       0x75 /usr/lib/gcc/x86_64-linux-gnu/10/../../../x86_64-linux-gnu/libc.a(strtok_r.o)
                0x0000000000465920                strtok_r
                0x0000000000465920                __strtok_r
 *fill*         0x0000000000465995        0xb 
 .text          0x00000000004659a0       0x31 /usr/lib/gcc/x86_64-linux-gnu/10/../../../x86_64-linux-gnu/libc.a(memchr.o)
                0x00000000004659a0                memchr
                0x00000000004659a0                __memchr
 *fill*         0x00000000004659d1        0xf 
 .text          0x00000000004659e0      0x5e5 /usr/lib/gcc/x86_64-linux-gnu/10/../../../x86_64-linux-gnu/libc.a(memmem.o)
                0x0000000000465d90                memmem
                0x0000000000465d90                __memmem
 *fill*         0x0000000000465fc5        0xb 
 .text          0x0000000000465fd0       0xd9 /usr/lib/gcc/x86_64-linux-gnu/10/../../../x86_64-linux-gnu/libc.a(argz-ctsep.o)
                0x0000000000465fd0                __argz_create_sep
                0x0000000000465fd0                argz_create_sep
 *fill*         0x00000000004660a9        0x7 
 .text          0x00000000004660b0       0xc1 /usr/lib/gcc/x86_64-linux-gnu/10/../../../x86_64-linux-gnu/libc.a(argz-addsep.o)
                0x00000000004660b0                argz_add_sep
                0x00000000004660b0                __argz_add_sep
 *fill*         0x0000000000466171        0xf 
 .text          0x0000000000466180      0x323 /usr/lib/gcc/x86_64-linux-gnu/10/../../../x86_64-linux-gnu/libc.a(memchr-sse2.o)
                0x0000000000466180                __memchr_sse2
 .text          0x00000000004664a3        0x0 /usr/lib/gcc/x86_64-linux-gnu/10/../../../x86_64-linux-gnu/libc.a(memchr-avx2.o)
 *fill*         0x00000000004664a3        0xd 
 .text.avx      0x00000000004664b0      0x2cd /usr/lib/gcc/x86_64-linux-gnu/10/../../../x86_64-linux-gnu/libc.a(memchr-avx2.o)
                0x00000000004664b0                __memchr_avx2
 *fill*         0x000000000046677d        0x3 
 .text          0x0000000000466780      0x2e2 /usr/lib/gcc/x86_64-linux-gnu/10/../../../x86_64-linux-gnu/libc.a(strrchr-sse2.o)
                0x0000000000466780                __strrchr_sse2
 .text          0x0000000000466a62        0x0 /usr/lib/gcc/x86_64-linux-gnu/10/../../../x86_64-linux-gnu/libc.a(strrchr-avx2.o)
 *fill*         0x0000000000466a62        0xe 
 .text.avx      0x0000000000466a70      0x1c6 /usr/lib/gcc/x86_64-linux-gnu/10/../../../x86_64-linux-gnu/libc.a(strrchr-avx2.o)
                0x0000000000466a70                __strrchr_avx2
 *fill*         0x0000000000466c36        0xa 
 .text          0x0000000000466c40       0x31 /usr/lib/gcc/x86_64-linux-gnu/10/../../../x86_64-linux-gnu/libc.a(wcslen.o)
                0x0000000000466c40                wcslen
                0x0000000000466c40                __wcslen
 *fill*         0x0000000000466c71        0xf 
 .text          0x0000000000466c80       0x31 /usr/lib/gcc/x86_64-linux-gnu/10/../../../x86_64-linux-gnu/libc.a(wmemchr.o)
                0x0000000000466c80                wmemchr
                0x0000000000466c80                __wmemchr
 *fill*         0x0000000000466cb1        0xf 
 .text          0x0000000000466cc0        0x9 /usr/lib/gcc/x86_64-linux-gnu/10/../../../x86_64-linux-gnu/libc.a(wmemcpy.o)
                0x0000000000466cc0                wmemcpy
                0x0000000000466cc0                __wmemcpy
 *fill*         0x0000000000466cc9        0x7 
 .text          0x0000000000466cd0        0x9 /usr/lib/gcc/x86_64-linux-gnu/10/../../../x86_64-linux-gnu/libc.a(wmemmove.o)
                0x0000000000466cd0                __wmemmove
                0x0000000000466cd0                wmemmove
 *fill*         0x0000000000466cd9        0x7 
 .text          0x0000000000466ce0       0x51 /usr/lib/gcc/x86_64-linux-gnu/10/../../../x86_64-linux-gnu/libc.a(wmemset.o)
                0x0000000000466ce0                wmemset
                0x0000000000466ce0                __wmemset
 *fill*         0x0000000000466d31        0xf 
 .text          0x0000000000466d40      0x1cd /usr/lib/gcc/x86_64-linux-gnu/10/../../../x86_64-linux-gnu/libc.a(btowc.o)
                0x0000000000466d40                __btowc
                0x0000000000466d40                btowc
 *fill*         0x0000000000466f0d        0x3 
 .text          0x0000000000466f10       0x20 /usr/lib/gcc/x86_64-linux-gnu/10/../../../x86_64-linux-gnu/libc.a(wcschrnul.o)
                0x0000000000466f10                __wcschrnul
                0x0000000000466f10                wcschrnul
 .text          0x0000000000466f30      0x323 /usr/lib/gcc/x86_64-linux-gnu/10/../../../x86_64-linux-gnu/libc.a(wmemchr-sse2.o)
                0x0000000000466f30                __wmemchr_sse2
 .text          0x0000000000467253        0x0 /usr/lib/gcc/x86_64-linux-gnu/10/../../../x86_64-linux-gnu/libc.a(wmemchr-avx2.o)
 *fill*         0x0000000000467253        0xd 
 .text.avx      0x0000000000467260      0x2cd /usr/lib/gcc/x86_64-linux-gnu/10/../../../x86_64-linux-gnu/libc.a(wmemchr-avx2.o)
                0x0000000000467260                __wmemchr_avx2
 *fill*         0x000000000046752d        0x3 
 .text          0x0000000000467530      0x298 /usr/lib/gcc/x86_64-linux-gnu/10/../../../x86_64-linux-gnu/libc.a(wcslen-sse2.o)
                0x0000000000467530                __wcslen_sse2
 .text          0x00000000004677c8        0x0 /usr/lib/gcc/x86_64-linux-gnu/10/../../../x86_64-linux-gnu/libc.a(wcslen-avx2.o)
 *fill*         0x00000000004677c8        0x8 
 .text.avx      0x00000000004677d0      0x1a2 /usr/lib/gcc/x86_64-linux-gnu/10/../../../x86_64-linux-gnu/libc.a(wcslen-avx2.o)
                0x00000000004677d0                __wcslen_avx2
 *fill*         0x0000000000467972        0xe 
 .text          0x0000000000467980       0x67 /usr/lib/gcc/x86_64-linux-gnu/10/../../../x86_64-linux-gnu/libc.a(clock_gettime.o)
                0x0000000000467980                clock_gettime
                0x0000000000467980                __clock_gettime
 *fill*         0x00000000004679e7        0x9 
 .text          0x00000000004679f0      0x221 /usr/lib/gcc/x86_64-linux-gnu/10/../../../x86_64-linux-gnu/libc.a(opendir.o)
                0x00000000004679f0                __alloc_dir
                0x0000000000467ba0                __opendirat
                0x0000000000467be0                __opendir
                0x0000000000467be0                opendir
 *fill*         0x0000000000467c11        0xf 
 .text          0x0000000000467c20       0x29 /usr/lib/gcc/x86_64-linux-gnu/10/../../../x86_64-linux-gnu/libc.a(closedir.o)
                0x0000000000467c20                __closedir
                0x0000000000467c20                closedir
 *fill*         0x0000000000467c49        0x7 
 .text          0x0000000000467c50       0xa3 /usr/lib/gcc/x86_64-linux-gnu/10/../../../x86_64-linux-gnu/libc.a(rewinddir.o)
                0x0000000000467c50                rewinddir
                0x0000000000467c50                __rewinddir
 *fill*         0x0000000000467cf3        0xd 
 .text          0x0000000000467d00      0x10c /usr/lib/gcc/x86_64-linux-gnu/10/../../../x86_64-linux-gnu/libc.a(readdir64.o)
                0x0000000000467d00                readdir
                0x0000000000467d00                __readdir64
                0x0000000000467d00                __readdir
                0x0000000000467d00                readdir64
 *fill*         0x0000000000467e0c        0x4 
 .text          0x0000000000467e10       0xbf /usr/lib/gcc/x86_64-linux-gnu/10/../../../x86_64-linux-gnu/libc.a(fdopendir.o)
                0x0000000000467e10                fdopendir
                0x0000000000467e10                __fdopendir
 *fill*         0x0000000000467ecf        0x1 
 .text          0x0000000000467ed0       0x21 /usr/lib/gcc/x86_64-linux-gnu/10/../../../x86_64-linux-gnu/libc.a(uname.o)
                0x0000000000467ed0                uname
                0x0000000000467ed0                __uname
 *fill*         0x0000000000467ef1        0xf 
 .text          0x0000000000467f00        0x8 /usr/lib/gcc/x86_64-linux-gnu/10/../../../x86_64-linux-gnu/libc.a(getuid.o)
                0x0000000000467f00                getuid
                0x0000000000467f00                __getuid
 *fill*         0x0000000000467f08        0x8 
 .text          0x0000000000467f10        0x8 /usr/lib/gcc/x86_64-linux-gnu/10/../../../x86_64-linux-gnu/libc.a(geteuid.o)
                0x0000000000467f10                geteuid
                0x0000000000467f10                __geteuid
 *fill*         0x0000000000467f18        0x8 
 .text          0x0000000000467f20        0x8 /usr/lib/gcc/x86_64-linux-gnu/10/../../../x86_64-linux-gnu/libc.a(getgid.o)
                0x0000000000467f20                getgid
                0x0000000000467f20                __getgid
 *fill*         0x0000000000467f28        0x8 
 .text          0x0000000000467f30        0x8 /usr/lib/gcc/x86_64-linux-gnu/10/../../../x86_64-linux-gnu/libc.a(getegid.o)
                0x0000000000467f30                getegid
                0x0000000000467f30                __getegid
 *fill*         0x0000000000467f38        0x8 
 .text          0x0000000000467f40       0x4c /usr/lib/gcc/x86_64-linux-gnu/10/../../../x86_64-linux-gnu/libc.a(lxstat.o)
                0x0000000000467f40                _lxstat
                0x0000000000467f40                __lxstat
                0x0000000000467f40                __lxstat64
 *fill*         0x0000000000467f8c        0x4 
 .text          0x0000000000467f90       0x54 /usr/lib/gcc/x86_64-linux-gnu/10/../../../x86_64-linux-gnu/libc.a(fxstatat.o)
                0x0000000000467f90                __fxstatat
                0x0000000000467f90                __fxstatat64
                0x0000000000467f90                __GI___fxstatat64
 *fill*         0x0000000000467fe4        0xc 
 .text          0x0000000000467ff0       0x3e /usr/lib/gcc/x86_64-linux-gnu/10/../../../x86_64-linux-gnu/libc.a(isatty.o)
                0x0000000000467ff0                isatty
                0x0000000000467ff0                __isatty
 *fill*         0x000000000046802e        0x2 
 .text          0x0000000000468030       0xc9 /usr/lib/gcc/x86_64-linux-gnu/10/../../../x86_64-linux-gnu/libc.a(tcgetattr.o)
                0x0000000000468030                __tcgetattr
                0x0000000000468030                tcgetattr
 *fill*         0x00000000004680f9        0x7 
 .text          0x0000000000468100       0x54 /usr/lib/gcc/x86_64-linux-gnu/10/../../../x86_64-linux-gnu/libc.a(brk.o)
                0x0000000000468100                __brk
                0x0000000000468100                brk
 *fill*         0x0000000000468154        0xc 
 .text          0x0000000000468160     0x37ef /usr/lib/gcc/x86_64-linux-gnu/10/../../../x86_64-linux-gnu/libc.a(dl-load.o)
                0x000000000046a2d0                _dl_dst_count
                0x000000000046a380                _dl_dst_substitute
                0x000000000046aa90                _dl_init_paths
                0x000000000046ad80                _dl_map_object
                0x000000000046b6c0                _dl_rtld_di_serinfo
 *fill*         0x000000000046b94f        0x1 
 .text          0x000000000046b950     0x195c /usr/lib/gcc/x86_64-linux-gnu/10/../../../x86_64-linux-gnu/libc.a(dl-lookup.o)
                0x000000000046c6f0                _dl_lookup_symbol_x
                0x000000000046d200                _dl_setup_hash
 *fill*         0x000000000046d2ac        0x4 
 .text          0x000000000046d2b0      0x3c5 /usr/lib/gcc/x86_64-linux-gnu/10/../../../x86_64-linux-gnu/libc.a(dl-object.o)
                0x000000000046d2b0                _dl_add_to_namespace_list
                0x000000000046d370                _dl_new_object
 *fill*         0x000000000046d675        0xb 
 .text          0x000000000046d680     0x1ba0 /usr/lib/gcc/x86_64-linux-gnu/10/../../../x86_64-linux-gnu/libc.a(dl-reloc.o)
                0x000000000046d680                _dl_try_allocate_static_tls
                0x000000000046d770                _dl_allocate_static_tls
                0x000000000046d7a0                _dl_nothread_init_static_tls
                0x000000000046d7f0                _dl_protect_relro
                0x000000000046d850                _dl_reloc_bad_type
                0x000000000046d920                _dl_relocate_object
 .text          0x000000000046f220      0x7ee /usr/lib/gcc/x86_64-linux-gnu/10/../../../x86_64-linux-gnu/libc.a(dl-hwcaps.o)
                0x000000000046f220                _dl_important_hwcaps
 *fill*         0x000000000046fa0e        0x2 
 .text          0x000000000046fa10      0xa61 /usr/lib/gcc/x86_64-linux-gnu/10/../../../x86_64-linux-gnu/libc.a(dl-misc.o)
                0x000000000046ffb0                _dl_sysdep_read_whole_file
                0x0000000000470050                _dl_debug_printf
                0x0000000000470100                _dl_debug_printf_c
                0x00000000004701b0                _dl_dprintf
                0x0000000000470250                _dl_name_match_p
                0x00000000004702c0                _dl_higher_prime_number
                0x0000000000470310                _dl_strtoul
 *fill*         0x0000000000470471        0xf 
 .text          0x0000000000470480      0x9f0 /usr/lib/gcc/x86_64-linux-gnu/10/../../../x86_64-linux-gnu/libc.a(dl-profile.o)
                0x0000000000470480                _dl_start_profile
                0x0000000000470c20                _dl_mcount
 .text          0x0000000000470e70      0x145 /usr/lib/gcc/x86_64-linux-gnu/10/../../../x86_64-linux-gnu/libc.a(dl-origin.o)
                0x0000000000470e70                _dl_get_origin
 *fill*         0x0000000000470fb5        0xb 
 .text          0x0000000000470fc0       0xda /usr/lib/gcc/x86_64-linux-gnu/10/../../../x86_64-linux-gnu/libc.a(dl-scope.o)
                0x0000000000470fc0                _dl_scope_free
 *fill*         0x000000000047109a        0x6 
 .text          0x00000000004710a0       0x44 /usr/lib/gcc/x86_64-linux-gnu/10/../../../x86_64-linux-gnu/libc.a(dl-execstack.o)
                0x00000000004710a0                _dl_make_stack_executable
 *fill*         0x00000000004710e4        0xc 
 .text          0x00000000004710f0      0xd0a /usr/lib/gcc/x86_64-linux-gnu/10/../../../x86_64-linux-gnu/libc.a(dl-trampoline.o)
                0x00000000004710f0                _dl_runtime_profile_avx512
                0x0000000000471570                _dl_runtime_profile_avx
                0x00000000004719f0                _dl_runtime_profile_sse
                0x0000000000471bf0                _dl_runtime_resolve_fxsave
                0x0000000000471c70                _dl_runtime_resolve_xsave
                0x0000000000471d40                _dl_runtime_resolve_xsavec
 *fill*         0x0000000000471dfa        0x6 
 .text          0x0000000000471e00      0x526 /usr/lib/gcc/x86_64-linux-gnu/10/../../../x86_64-linux-gnu/libc.a(dl-exception.o)
                0x0000000000471e30                _dl_exception_create
                0x0000000000471ee0                _dl_exception_create_format
                0x0000000000472300                _dl_exception_free
 *fill*         0x0000000000472326        0xa 
 .text          0x0000000000472330      0x798 /usr/lib/gcc/x86_64-linux-gnu/10/../../../x86_64-linux-gnu/libc.a(dl-cache.o)
                0x0000000000472330                _dl_cache_libcmp
                0x0000000000472400                _dl_load_cache_lookup
                0x0000000000472a90                _dl_unload_cache
 *fill*         0x0000000000472ac8        0x8 
 .text          0x0000000000472ad0      0x101 /usr/lib/gcc/x86_64-linux-gnu/10/../../../x86_64-linux-gnu/libc.a(dl-tlsdesc.o)
                0x0000000000472ad0                _dl_tlsdesc_return
                0x0000000000472ae0                _dl_tlsdesc_undefweak
                0x0000000000472af0                _dl_tlsdesc_resolve_rela
                0x0000000000472b60                _dl_tlsdesc_resolve_hold
 *fill*         0x0000000000472bd1        0xf 
 .text          0x0000000000472be0      0x5cf /usr/lib/gcc/x86_64-linux-gnu/10/../../../x86_64-linux-gnu/libc.a(dl-libc.o)
                0x0000000000472ca0                __libc_dlsym
                0x0000000000472d30                __libc_dlvsym
                0x0000000000472fa0                __libc_dlclose
                0x0000000000473030                __libc_dlsym_private
                0x00000000004730c0                __libc_dlopen_mode
                0x0000000000473170                __libc_register_dl_open_hook
 .text          0x00000000004731af        0x0 /usr/lib/gcc/x86_64-linux-gnu/10/../../../x86_64-linux-gnu/libc.a(lc-monetary.o)
 .text          0x00000000004731af        0x0 /usr/lib/gcc/x86_64-linux-gnu/10/../../../x86_64-linux-gnu/libc.a(C-messages.o)
 .text          0x00000000004731af        0x0 /usr/lib/gcc/x86_64-linux-gnu/10/../../../x86_64-linux-gnu/libc.a(C-monetary.o)
 .text          0x00000000004731af        0x0 /usr/lib/gcc/x86_64-linux-gnu/10/../../../x86_64-linux-gnu/libc.a(C-numeric.o)
 .text          0x00000000004731af        0x0 /usr/lib/gcc/x86_64-linux-gnu/10/../../../x86_64-linux-gnu/libc.a(C-time.o)
 .text          0x00000000004731af        0x0 /usr/lib/gcc/x86_64-linux-gnu/10/../../../x86_64-linux-gnu/libc.a(C-paper.o)
 .text          0x00000000004731af        0x0 /usr/lib/gcc/x86_64-linux-gnu/10/../../../x86_64-linux-gnu/libc.a(C-name.o)
 .text          0x00000000004731af        0x0 /usr/lib/gcc/x86_64-linux-gnu/10/../../../x86_64-linux-gnu/libc.a(C-address.o)
 .text          0x00000000004731af        0x0 /usr/lib/gcc/x86_64-linux-gnu/10/../../../x86_64-linux-gnu/libc.a(C-telephone.o)
 .text          0x00000000004731af        0x0 /usr/lib/gcc/x86_64-linux-gnu/10/../../../x86_64-linux-gnu/libc.a(C-measurement.o)
 .text          0x00000000004731af        0x0 /usr/lib/gcc/x86_64-linux-gnu/10/../../../x86_64-linux-gnu/libc.a(C-identification.o)
 .text          0x00000000004731af        0x0 /usr/lib/gcc/x86_64-linux-gnu/10/../../../x86_64-linux-gnu/libc.a(C-collate.o)
 *fill*         0x00000000004731af        0x1 
 .text          0x00000000004731b0       0x33 /usr/lib/gcc/x86_64-linux-gnu/10/../../../x86_64-linux-gnu/libc.a(cmp.o)
                0x00000000004731b0                __mpn_cmp
 *fill*         0x00000000004731e3        0xd 
 .text          0x00000000004731f0      0x414 /usr/lib/gcc/x86_64-linux-gnu/10/../../../x86_64-linux-gnu/libc.a(divrem.o)
                0x00000000004731f0                __mpn_divrem
 *fill*         0x0000000000473604        0xc 
 .text          0x0000000000473610      0x103 /usr/lib/gcc/x86_64-linux-gnu/10/../../../x86_64-linux-gnu/libc.a(lshift.o)
                0x0000000000473610                __mpn_lshift
 *fill*         0x0000000000473713        0xd 
 .text          0x0000000000473720      0x103 /usr/lib/gcc/x86_64-linux-gnu/10/../../../x86_64-linux-gnu/libc.a(rshift.o)
                0x0000000000473720                __mpn_rshift
 *fill*         0x0000000000473823        0xd 
 .text          0x0000000000473830      0x3a5 /usr/lib/gcc/x86_64-linux-gnu/10/../../../x86_64-linux-gnu/libc.a(mul.o)
                0x0000000000473830                __mpn_mul
 *fill*         0x0000000000473bd5        0xb 
 .text          0x0000000000473be0      0x119 /usr/lib/gcc/x86_64-linux-gnu/10/../../../x86_64-linux-gnu/libc.a(mul_1.o)
                0x0000000000473be0                __mpn_mul_1
 *fill*         0x0000000000473cf9        0x7 
 .text          0x0000000000473d00      0xb46 /usr/lib/gcc/x86_64-linux-gnu/10/../../../x86_64-linux-gnu/libc.a(mul_n.o)
                0x0000000000473d00                __mpn_impn_mul_n_basecase
                0x0000000000473e00                __mpn_impn_mul_n
                0x00000000004742b0                __mpn_impn_sqr_n_basecase
                0x00000000004743b0                __mpn_impn_sqr_n
                0x00000000004747b0                __mpn_mul_n
 *fill*         0x0000000000474846        0xa 
 .text          0x0000000000474850       0xad /usr/lib/gcc/x86_64-linux-gnu/10/../../../x86_64-linux-gnu/libc.a(sub_n.o)
                0x0000000000474850                __mpn_sub_n
 *fill*         0x00000000004748fd        0x3 
 .text          0x0000000000474900       0xeb /usr/lib/gcc/x86_64-linux-gnu/10/../../../x86_64-linux-gnu/libc.a(submul_1.o)
                0x0000000000474900                __mpn_submul_1
 *fill*         0x00000000004749eb        0x5 
 .text          0x00000000004749f0       0x90 /usr/lib/gcc/x86_64-linux-gnu/10/../../../x86_64-linux-gnu/libc.a(dbl2mpn.o)
                0x00000000004749f0                __mpn_extract_double
 .text          0x0000000000474a80       0xb9 /usr/lib/gcc/x86_64-linux-gnu/10/../../../x86_64-linux-gnu/libc.a(ldbl2mpn.o)
                0x0000000000474a80                __mpn_extract_long_double
 *fill*         0x0000000000474b39        0x7 
 .text          0x0000000000474b40      0x11c /usr/lib/gcc/x86_64-linux-gnu/10/../../../x86_64-linux-gnu/libc.a(float1282mpn.o)
                0x0000000000474b40                __mpn_extract_float128
 .text          0x0000000000474c5c        0x0 /usr/lib/gcc/x86_64-linux-gnu/10/../../../x86_64-linux-gnu/libc.a(fpioconst.o)
 .text          0x0000000000474c5c        0x0 /usr/lib/gcc/x86_64-linux-gnu/10/../../../x86_64-linux-gnu/libc.a(itowa-digits.o)
 *fill*         0x0000000000474c5c        0x4 
 .text          0x0000000000474c60      0x4d4 /usr/lib/gcc/x86_64-linux-gnu/10/../../../x86_64-linux-gnu/libc.a(sdlerror.o)
                0x0000000000474d20                __dlerror
                0x0000000000474fa0                _dlerror_run
                0x0000000000475110                __libc_register_dlfcn_hook
 *fill*         0x0000000000475134        0xc 
 .text          0x0000000000475140        0x9 /usr/lib/gcc/x86_64-linux-gnu/10/../../../x86_64-linux-gnu/libc.a(sdladdr.o)
                0x0000000000475140                __dladdr
 *fill*         0x0000000000475149        0x7 
 .text          0x0000000000475150       0x27 /usr/lib/gcc/x86_64-linux-gnu/10/../../../x86_64-linux-gnu/libc.a(sdladdr1.o)
                0x0000000000475150                __dladdr1
 *fill*         0x0000000000475177        0x9 
 .text          0x0000000000475180      0x134 /usr/lib/gcc/x86_64-linux-gnu/10/../../../x86_64-linux-gnu/libc.a(sdlinfo.o)
                0x0000000000475260                __dlinfo
 *fill*         0x00000000004752b4        0xc 
 .text          0x00000000004752c0       0xe2 /usr/lib/gcc/x86_64-linux-gnu/10/../../../x86_64-linux-gnu/libc.a(sdlmopen.o)
                0x0000000000475330                __dlmopen
 *fill*         0x00000000004753a2        0xe 
 .text          0x00000000004753b0       0x89 /usr/lib/gcc/x86_64-linux-gnu/10/../../../x86_64-linux-gnu/libc.a(strerror.o)
                0x00000000004753b0                strerror
 *fill*         0x0000000000475439        0x7 
 .text          0x0000000000475440       0x1a /usr/lib/gcc/x86_64-linux-gnu/10/../../../x86_64-linux-gnu/libc.a(strspn.o)
                0x0000000000475440                strspn
 *fill*         0x000000000047545a        0x6 
 .text          0x0000000000475460       0x52 /usr/lib/gcc/x86_64-linux-gnu/10/../../../x86_64-linux-gnu/libc.a(strsep.o)
                0x0000000000475460                __strsep
                0x0000000000475460                strsep
                0x0000000000475460                __strsep_g
 *fill*         0x00000000004754b2        0xe 
 .text          0x00000000004754c0       0x97 /usr/lib/gcc/x86_64-linux-gnu/10/../../../x86_64-linux-gnu/libc.a(strspn-sse2.o)
                0x00000000004754c0                __strspn_sse2
 .text          0x0000000000475557        0x0 /usr/lib/gcc/x86_64-linux-gnu/10/../../../x86_64-linux-gnu/libc.a(strspn-c.o)
 *fill*         0x0000000000475557        0x9 
 .text.sse4.2   0x0000000000475560      0x12f /usr/lib/gcc/x86_64-linux-gnu/10/../../../x86_64-linux-gnu/libc.a(strspn-c.o)
                0x0000000000475560                __strspn_sse42
 *fill*         0x000000000047568f        0x1 
 .text          0x0000000000475690       0x34 /usr/lib/gcc/x86_64-linux-gnu/10/../../../x86_64-linux-gnu/libc.a(getdents64.o)
                0x0000000000475690                __getdents
                0x0000000000475690                getdents64
                0x0000000000475690                __getdents64
 *fill*         0x00000000004756c4        0xc 
 .text          0x00000000004756d0        0x8 /usr/lib/gcc/x86_64-linux-gnu/10/../../../x86_64-linux-gnu/libc.a(getpid.o)
                0x00000000004756d0                __getpid
                0x00000000004756d0                getpid
 *fill*         0x00000000004756d8        0x8 
 .text          0x00000000004756e0       0x2c /usr/lib/gcc/x86_64-linux-gnu/10/../../../x86_64-linux-gnu/libc.a(pread64_nocancel.o)
                0x00000000004756e0                __pread64_nocancel
 *fill*         0x000000000047570c        0x4 
 .text          0x0000000000475710      0x220 /usr/lib/gcc/x86_64-linux-gnu/10/../../../x86_64-linux-gnu/libc.a(profil.o)
                0x0000000000475760                __profil
                0x0000000000475760                profil
 .text          0x0000000000475930        0x7 /usr/lib/gcc/x86_64-linux-gnu/10/../../../x86_64-linux-gnu/libc.a(prof-freq.o)
                0x0000000000475930                __profile_frequency
 *fill*         0x0000000000475937        0x9 
 .text          0x0000000000475940      0x401 /usr/lib/gcc/x86_64-linux-gnu/10/../../../x86_64-linux-gnu/libc.a(dl-runtime.o)
                0x0000000000475940                _dl_fixup
                0x0000000000475b00                _dl_profile_fixup
                0x0000000000475d40                _dl_call_pltexit
 *fill*         0x0000000000475d41        0xf 
 .text          0x0000000000475d50     0x10a4 /usr/lib/gcc/x86_64-linux-gnu/10/../../../x86_64-linux-gnu/libc.a(dl-open.o)
                0x0000000000476060                _dl_find_dso_for_object
                0x0000000000476110                _dl_open
                0x0000000000476330                _dl_show_scope
 *fill*         0x0000000000476df4        0xc 
 .text          0x0000000000476e00     0x1162 /usr/lib/gcc/x86_64-linux-gnu/10/../../../x86_64-linux-gnu/libc.a(dl-close.o)
                0x0000000000476fa0                _dl_close_worker
                0x0000000000477ee0                _dl_close
 *fill*         0x0000000000477f62        0xe 
 .text          0x0000000000477f70      0x2a9 /usr/lib/gcc/x86_64-linux-gnu/10/../../../x86_64-linux-gnu/libc.a(dl-sort-maps.o)
                0x0000000000477f70                _dl_sort_maps
 *fill*         0x0000000000478219        0x7 
 .text          0x0000000000478220      0x219 /usr/lib/gcc/x86_64-linux-gnu/10/../../../x86_64-linux-gnu/libc.a(tlsdesc.o)
                0x0000000000478220                _dl_tlsdesc_resolve_rela_fixup
                0x00000000004783b0                _dl_tlsdesc_resolve_hold_fixup
                0x0000000000478420                _dl_unmap
 *fill*         0x0000000000478439        0x7 
 .text          0x0000000000478440      0x348 /usr/lib/gcc/x86_64-linux-gnu/10/../../../x86_64-linux-gnu/libc.a(dl-addr.o)
                0x0000000000478440                _dl_addr
 *fill*         0x0000000000478788        0x8 
 .text          0x0000000000478790       0x7b /usr/lib/gcc/x86_64-linux-gnu/10/../../../x86_64-linux-gnu/libc.a(dl-addr-obj.o)
                0x0000000000478790                _dl_addr_inside_object
 *fill*         0x000000000047880b        0x5 
 .text          0x0000000000478810       0xad /usr/lib/gcc/x86_64-linux-gnu/10/../../../x86_64-linux-gnu/libc.a(add_n.o)
                0x0000000000478810                __mpn_add_n
 *fill*         0x00000000004788bd        0x3 
 .text          0x00000000004788c0       0xeb /usr/lib/gcc/x86_64-linux-gnu/10/../../../x86_64-linux-gnu/libc.a(addmul_1.o)
                0x00000000004788c0                __mpn_addmul_1
 *fill*         0x00000000004789ab        0x5 
 .text          0x00000000004789b0       0xed /usr/lib/gcc/x86_64-linux-gnu/10/../../../x86_64-linux-gnu/libc.a(sdlopen.o)
                0x0000000000478a30                __dlopen
 *fill*         0x0000000000478a9d        0x3 
 .text          0x0000000000478aa0       0x32 /usr/lib/gcc/x86_64-linux-gnu/10/../../../x86_64-linux-gnu/libc.a(sdlclose.o)
                0x0000000000478ab0                __dlclose
 *fill*         0x0000000000478ad2        0xe 
 .text          0x0000000000478ae0       0xae /usr/lib/gcc/x86_64-linux-gnu/10/../../../x86_64-linux-gnu/libc.a(sdlsym.o)
                0x0000000000478b00                __dlsym
 *fill*         0x0000000000478b8e        0x2 
 .text          0x0000000000478b90       0xb3 /usr/lib/gcc/x86_64-linux-gnu/10/../../../x86_64-linux-gnu/libc.a(sdlvsym.o)
                0x0000000000478bb0                __dlvsym
 *fill*         0x0000000000478c43        0xd 
 .text          0x0000000000478c50       0x21 /usr/lib/gcc/x86_64-linux-gnu/10/../../../x86_64-linux-gnu/libc.a(setitimer.o)
                0x0000000000478c50                setitimer
                0x0000000000478c50                __setitimer
 *fill*         0x0000000000478c71        0xf 
 .text          0x0000000000478c80      0xff1 /usr/lib/gcc/x86_64-linux-gnu/10/../../../x86_64-linux-gnu/libc.a(dl-deps.o)
                0x0000000000478d50                _dl_map_object_deps
 *fill*         0x0000000000479c71        0xf 
 .text          0x0000000000479c80      0x252 /usr/lib/gcc/x86_64-linux-gnu/10/../../../x86_64-linux-gnu/libc.a(dl-init.o)
                0x0000000000479da0                _dl_init
 *fill*         0x0000000000479ed2        0xe 
 .text          0x0000000000479ee0      0x769 /usr/lib/gcc/x86_64-linux-gnu/10/../../../x86_64-linux-gnu/libc.a(dl-version.o)
                0x0000000000479ee0                _dl_check_map_versions
                0x000000000047a5d0                _dl_check_all_versions
 *fill*         0x000000000047a649        0x7 
 .text          0x000000000047a650      0x36d /usr/lib/gcc/x86_64-linux-gnu/10/../../../x86_64-linux-gnu/libc.a(dl-sym.o)
                0x000000000047a8c0                _dl_vsym
                0x000000000047a9b0                _dl_sym
 *fill*         0x000000000047a9bd        0x3 
 .text          0x000000000047a9c0      0x20d /usr/lib/gcc/x86_64-linux-gnu/10/libgcc.a(unordtf2.o)
                0x000000000047a9c0                __unordtf2
 *fill*         0x000000000047abcd        0x3 
 .text          0x000000000047abd0      0x27b /usr/lib/gcc/x86_64-linux-gnu/10/libgcc.a(letf2.o)
                0x000000000047abd0                __letf2
                0x000000000047abd0                __lttf2
 *fill*         0x000000000047ae4b        0x5 
 .text          0x000000000047ae50       0x79 /usr/lib/gcc/x86_64-linux-gnu/10/libgcc.a(sfp-exceptions.o)
                0x000000000047ae50                __sfp_handle_exceptions
 *fill*         0x000000000047aec9        0x7 
 .text          0x000000000047aed0     0x2dab /usr/lib/gcc/x86_64-linux-gnu/10/libgcc_eh.a(unwind-dw2.o)
                0x000000000047d140                _Unwind_GetGR
                0x000000000047d180                _Unwind_GetCFA
                0x000000000047d190                _Unwind_SetGR
                0x000000000047d1f0                _Unwind_GetIP
                0x000000000047d200                _Unwind_GetIPInfo
                0x000000000047d220                _Unwind_SetIP
                0x000000000047d230                _Unwind_GetLanguageSpecificData
                0x000000000047d240                _Unwind_GetRegionStart
                0x000000000047d250                _Unwind_FindEnclosingFunction
                0x000000000047d270                _Unwind_GetDataRelBase
                0x000000000047d280                _Unwind_GetTextRelBase
                0x000000000047d290                __frame_state_for
                0x000000000047d3b0                _Unwind_RaiseException
                0x000000000047d740                _Unwind_ForcedUnwind
                0x000000000047d8e0                _Unwind_Resume
                0x000000000047da70                _Unwind_Resume_or_Rethrow
                0x000000000047db50                _Unwind_DeleteException
                0x000000000047db70                _Unwind_Backtrace
 *fill*         0x000000000047dc7b        0x5 
 .text          0x000000000047dc80     0x2233 /usr/lib/gcc/x86_64-linux-gnu/10/libgcc_eh.a(unwind-dw2-fde-dip.o)
                0x000000000047f780                __register_frame_info_bases
                0x000000000047f830                __register_frame_info
                0x000000000047f8f0                __register_frame
                0x000000000047f920                __register_frame_info_table_bases
                0x000000000047f9b0                __register_frame_info_table
                0x000000000047fa50                __register_frame_table
                0x000000000047faf0                __deregister_frame_info_bases
                0x000000000047fc20                __deregister_frame_info
                0x000000000047fc30                __deregister_frame
                0x000000000047fc60                _Unwind_Find_FDE
 *fill*         0x000000000047feb3        0xd 
 .text          0x000000000047fec0      0x4b2 /usr/lib/gcc/x86_64-linux-gnu/10/libgcc_eh.a(unwind-c.o)
                0x0000000000480090                __gcc_personality_v0
 *fill*         0x0000000000480372        0xe 
 .text          0x0000000000480380      0x130 /usr/lib/gcc/x86_64-linux-gnu/10/../../../x86_64-linux-gnu/libc.a(dl-iteratephdr.o)
                0x0000000000480380                dl_iterate_phdr
                0x0000000000480380                __dl_iterate_phdr
 .text          0x00000000004804b0        0x0 /usr/lib/gcc/x86_64-linux-gnu/10/crtend.o
 .text          0x00000000004804b0        0x0 /usr/lib/gcc/x86_64-linux-gnu/10/../../../x86_64-linux-gnu/crtn.o
 *(.gnu.warning)

__libc_freeres_fn
                0x00000000004804b0      0xa66
 __libc_freeres_fn
                0x00000000004804b0       0xbf /usr/lib/gcc/x86_64-linux-gnu/10/../../../x86_64-linux-gnu/libc.a(dcigettext.o)
 *fill*         0x000000000048056f        0x1 
 __libc_freeres_fn
                0x0000000000480570       0x4a /usr/lib/gcc/x86_64-linux-gnu/10/../../../x86_64-linux-gnu/libc.a(finddomain.o)
                0x0000000000480570                _nl_finddomain_subfreeres
 *fill*         0x00000000004805ba        0x6 
 __libc_freeres_fn
                0x00000000004805c0       0xe5 /usr/lib/gcc/x86_64-linux-gnu/10/../../../x86_64-linux-gnu/libc.a(loadmsgcat.o)
                0x00000000004805c0                _nl_unload_domain
 *fill*         0x00000000004806a5        0xb 
 __libc_freeres_fn
                0x00000000004806b0       0x39 /usr/lib/gcc/x86_64-linux-gnu/10/../../../x86_64-linux-gnu/libc.a(genops.o)
 *fill*         0x00000000004806e9        0x7 
 __libc_freeres_fn
                0x00000000004806f0      0x16d /usr/lib/gcc/x86_64-linux-gnu/10/../../../x86_64-linux-gnu/libc.a(gconv_db.o)
 *fill*         0x000000000048085d        0x3 
 __libc_freeres_fn
                0x0000000000480860       0x21 /usr/lib/gcc/x86_64-linux-gnu/10/../../../x86_64-linux-gnu/libc.a(gconv_conf.o)
 *fill*         0x0000000000480881        0xf 
 __libc_freeres_fn
                0x0000000000480890       0x35 /usr/lib/gcc/x86_64-linux-gnu/10/../../../x86_64-linux-gnu/libc.a(gconv_cache.o)
 *fill*         0x00000000004808c5        0xb 
 __libc_freeres_fn
                0x00000000004808d0       0x47 /usr/lib/gcc/x86_64-linux-gnu/10/../../../x86_64-linux-gnu/libc.a(gconv_dl.o)
 *fill*         0x0000000000480917        0x9 
 __libc_freeres_fn
                0x0000000000480920      0x2bf /usr/lib/gcc/x86_64-linux-gnu/10/../../../x86_64-linux-gnu/libc.a(setlocale.o)
                0x00000000004809d0                _nl_locale_subfreeres
 *fill*         0x0000000000480bdf        0x1 
 __libc_freeres_fn
                0x0000000000480be0       0xf4 /usr/lib/gcc/x86_64-linux-gnu/10/../../../x86_64-linux-gnu/libc.a(loadarchive.o)
                0x0000000000480be0                _nl_archive_subfreeres
 *fill*         0x0000000000480cd4        0xc 
 __libc_freeres_fn
                0x0000000000480ce0       0x2c /usr/lib/gcc/x86_64-linux-gnu/10/../../../x86_64-linux-gnu/libc.a(setenv.o)
 *fill*         0x0000000000480d0c        0x4 
 __libc_freeres_fn
                0x0000000000480d10       0x58 /usr/lib/gcc/x86_64-linux-gnu/10/../../../x86_64-linux-gnu/libc.a(reg-modifier.o)
 *fill*         0x0000000000480d68        0x8 
 __libc_freeres_fn
                0x0000000000480d70      0x1a6 /usr/lib/gcc/x86_64-linux-gnu/10/../../../x86_64-linux-gnu/libc.a(dl-libc.o)

.fini           0x0000000000480f18        0x9
 *(SORT_NONE(.fini))
 .fini          0x0000000000480f18        0x4 /usr/lib/gcc/x86_64-linux-gnu/10/../../../x86_64-linux-gnu/crti.o
                0x0000000000480f18                _fini
 .fini          0x0000000000480f1c        0x5 /usr/lib/gcc/x86_64-linux-gnu/10/../../../x86_64-linux-gnu/crtn.o
                [!provide]                        PROVIDE (__etext = .)
                [!provide]                        PROVIDE (_etext = .)
                [!provide]                        PROVIDE (etext = .)
                0x0000000000481000                . = ALIGN (CONSTANT (MAXPAGESIZE))
                0x0000000000481000                . = SEGMENT_START ("rodata-segment", (ALIGN (CONSTANT (MAXPAGESIZE)) + (. & (CONSTANT (MAXPAGESIZE) - 0x1))))

.rodata         0x0000000000481000    0x1bcbc
 *(.rodata .rodata.* .gnu.linkonce.r.*)
 .rodata.cst4   0x0000000000481000        0x4 /usr/lib/gcc/x86_64-linux-gnu/10/../../../x86_64-linux-gnu/crt1.o
                0x0000000000481000                _IO_stdin_used
 .rodata.str1.1
                0x0000000000481004        0xe ropex.o
                                         0x11 (size before relaxing)
 .rodata.str1.1
                0x0000000000481012       0x3c /usr/lib/gcc/x86_64-linux-gnu/10/../../../x86_64-linux-gnu/libc.a(libc-start.o)
 *fill*         0x000000000048104e        0x2 
 .rodata.str1.8
                0x0000000000481050       0x88 /usr/lib/gcc/x86_64-linux-gnu/10/../../../x86_64-linux-gnu/libc.a(libc-start.o)
 .rodata        0x00000000004810d8      0x118 /usr/lib/gcc/x86_64-linux-gnu/10/../../../x86_64-linux-gnu/libc.a(libc-start.o)
 .rodata.str1.16
                0x00000000004811f0       0x12 /usr/lib/gcc/x86_64-linux-gnu/10/../../../x86_64-linux-gnu/libc.a(libc-start.o)
 .rodata.str1.1
                0x0000000000481202       0x14 /usr/lib/gcc/x86_64-linux-gnu/10/../../../x86_64-linux-gnu/libc.a(check_fds.o)
 *fill*         0x0000000000481216        0x2 
 .rodata.str1.8
                0x0000000000481218       0x35 /usr/lib/gcc/x86_64-linux-gnu/10/../../../x86_64-linux-gnu/libc.a(libc-tls.o)
 .rodata.str1.1
                0x000000000048124d        0x3 /usr/lib/gcc/x86_64-linux-gnu/10/../../../x86_64-linux-gnu/libc.a(assert.o)
                                          0x7 (size before relaxing)
 .rodata.str1.8
                0x0000000000481250       0x29 /usr/lib/gcc/x86_64-linux-gnu/10/../../../x86_64-linux-gnu/libc.a(assert.o)
 *fill*         0x0000000000481279        0x7 
 .rodata.str1.16
                0x0000000000481280       0x13 /usr/lib/gcc/x86_64-linux-gnu/10/../../../x86_64-linux-gnu/libc.a(assert.o)
 *fill*         0x0000000000481293        0x1 
 .rodata        0x0000000000481294       0x2c /usr/lib/gcc/x86_64-linux-gnu/10/../../../x86_64-linux-gnu/libc.a(dcigettext.o)
 .rodata.str1.1
                0x00000000004812c0       0x31 /usr/lib/gcc/x86_64-linux-gnu/10/../../../x86_64-linux-gnu/libc.a(dcigettext.o)
                                         0x32 (size before relaxing)
                0x00000000004812eb                _nl_POSIX_name
 *fill*         0x00000000004812f1        0xf 
 .rodata.str1.16
                0x0000000000481300       0x12 /usr/lib/gcc/x86_64-linux-gnu/10/../../../x86_64-linux-gnu/libc.a(dcigettext.o)
                0x0000000000481300                _nl_default_dirname
 *fill*         0x0000000000481312        0x6 
 .rodata.str1.8
                0x0000000000481318        0x9 /usr/lib/gcc/x86_64-linux-gnu/10/../../../x86_64-linux-gnu/libc.a(dcigettext.o)
                0x0000000000481318                _nl_default_default_domain
 .rodata.str1.1
                0x0000000000481321       0x11 /usr/lib/gcc/x86_64-linux-gnu/10/../../../x86_64-linux-gnu/libc.a(loadmsgcat.o)
                                         0x21 (size before relaxing)
 .rodata.str1.1
                0x0000000000481332       0x16 /usr/lib/gcc/x86_64-linux-gnu/10/../../../x86_64-linux-gnu/libc.a(localealias.o)
 .rodata.str1.8
                0x0000000000481348        0xe /usr/lib/gcc/x86_64-linux-gnu/10/../../../x86_64-linux-gnu/libc.a(localealias.o)
 *fill*         0x0000000000481356        0xa 
 .rodata        0x0000000000481360      0x3e7 /usr/lib/gcc/x86_64-linux-gnu/10/../../../x86_64-linux-gnu/libc.a(plural.o)
 .rodata.str1.1
                0x0000000000481747        0x4 /usr/lib/gcc/x86_64-linux-gnu/10/../../../x86_64-linux-gnu/libc.a(plural.o)
 *fill*         0x000000000048174b        0x5 
 .rodata.str1.16
                0x0000000000481750       0x1c /usr/lib/gcc/x86_64-linux-gnu/10/../../../x86_64-linux-gnu/libc.a(plural.o)
 .rodata.str1.1
                0x000000000048176c       0x12 /usr/lib/gcc/x86_64-linux-gnu/10/../../../x86_64-linux-gnu/libc.a(plural-exp.o)
 *fill*         0x000000000048177e        0x2 
 .rodata        0x0000000000481780       0x40 /usr/lib/gcc/x86_64-linux-gnu/10/../../../x86_64-linux-gnu/libc.a(plural-exp.o)
 .rodata.str1.1
                0x00000000004817c0       0x24 /usr/lib/gcc/x86_64-linux-gnu/10/../../../x86_64-linux-gnu/libc.a(cxa_atexit.o)
 *fill*         0x00000000004817e4        0x4 
 .rodata.str1.8
                0x00000000004817e8        0xd /usr/lib/gcc/x86_64-linux-gnu/10/../../../x86_64-linux-gnu/libc.a(cxa_atexit.o)
 *fill*         0x00000000004817f5        0xb 
 .rodata.str1.16
                0x0000000000481800       0x12 /usr/lib/gcc/x86_64-linux-gnu/10/../../../x86_64-linux-gnu/libc.a(cxa_atexit.o)
 .rodata.str1.1
                0x0000000000481812       0x42 /usr/lib/gcc/x86_64-linux-gnu/10/../../../x86_64-linux-gnu/libc.a(vfprintf-internal.o)
                                         0x43 (size before relaxing)
 *fill*         0x0000000000481854        0x4 
 .rodata.str1.8
                0x0000000000481858       0xd1 /usr/lib/gcc/x86_64-linux-gnu/10/../../../x86_64-linux-gnu/libc.a(vfprintf-internal.o)
 *fill*         0x0000000000481929       0x17 
 .rodata        0x0000000000481940       0x7b /usr/lib/gcc/x86_64-linux-gnu/10/../../../x86_64-linux-gnu/libc.a(vfprintf-internal.o)
 *fill*         0x00000000004819bb        0x5 
 .rodata.str1.16
                0x00000000004819c0       0x34 /usr/lib/gcc/x86_64-linux-gnu/10/../../../x86_64-linux-gnu/libc.a(vfprintf-internal.o)
 .rodata        0x00000000004819f4      0x244 /usr/lib/gcc/x86_64-linux-gnu/10/../../../x86_64-linux-gnu/libc.a(printf-parsemb.o)
 *fill*         0x0000000000481c38        0x8 
 .rodata.str1.16
                0x0000000000481c40       0x31 /usr/lib/gcc/x86_64-linux-gnu/10/../../../x86_64-linux-gnu/libc.a(iopadn.o)
 .rodata.str1.1
                0x0000000000481c71       0x27 /usr/lib/gcc/x86_64-linux-gnu/10/../../../x86_64-linux-gnu/libc.a(wfileops.o)
 *fill*         0x0000000000481c98        0x8 
 .rodata.str1.16
                0x0000000000481ca0       0x14 /usr/lib/gcc/x86_64-linux-gnu/10/../../../x86_64-linux-gnu/libc.a(wfileops.o)
 .rodata.str1.1
                0x0000000000481cb4       0x36 /usr/lib/gcc/x86_64-linux-gnu/10/../../../x86_64-linux-gnu/libc.a(iofwide.o)
 *fill*         0x0000000000481cea        0x6 
 .rodata.str1.8
                0x0000000000481cf0        0xa /usr/lib/gcc/x86_64-linux-gnu/10/../../../x86_64-linux-gnu/libc.a(iofwide.o)
 .rodata.str1.1
                0x0000000000481cfa        0x3 /usr/lib/gcc/x86_64-linux-gnu/10/../../../x86_64-linux-gnu/libc.a(libc_fatal.o)
 *fill*         0x0000000000481cfa        0x6 
 .rodata.str1.8
                0x0000000000481d00       0x35 /usr/lib/gcc/x86_64-linux-gnu/10/../../../x86_64-linux-gnu/libc.a(vtables.o)
 .rodata.str1.1
                0x0000000000481d35        0x6 /usr/lib/gcc/x86_64-linux-gnu/10/../../../x86_64-linux-gnu/libc.a(fileops.o)
                                         0x3c (size before relaxing)
 *fill*         0x0000000000481d3b        0x1 
 .rodata        0x0000000000481d3c       0x5c /usr/lib/gcc/x86_64-linux-gnu/10/../../../x86_64-linux-gnu/libc.a(fileops.o)
 *fill*         0x0000000000481d98        0x8 
 .rodata.str1.16
                0x0000000000481da0       0x13 /usr/lib/gcc/x86_64-linux-gnu/10/../../../x86_64-linux-gnu/libc.a(fileops.o)
 .rodata.str1.1
                0x0000000000481db3       0x1a /usr/lib/gcc/x86_64-linux-gnu/10/../../../x86_64-linux-gnu/libc.a(strops.o)
 *fill*         0x0000000000481dcd        0x3 
 .rodata.str1.16
                0x0000000000481dd0       0x10 /usr/lib/gcc/x86_64-linux-gnu/10/../../../x86_64-linux-gnu/libc.a(strops.o)
 .rodata.str1.1
                0x0000000000481de0      0x300 /usr/lib/gcc/x86_64-linux-gnu/10/../../../x86_64-linux-gnu/libc.a(malloc.o)
                                        0x308 (size before relaxing)
 .rodata.str1.8
                0x00000000004820e0      0xea6 /usr/lib/gcc/x86_64-linux-gnu/10/../../../x86_64-linux-gnu/libc.a(malloc.o)
 *fill*         0x0000000000482f86        0x2 
 .rodata        0x0000000000482f88       0x28 /usr/lib/gcc/x86_64-linux-gnu/10/../../../x86_64-linux-gnu/libc.a(malloc.o)
 .rodata.str1.16
                0x0000000000482fb0       0x3e /usr/lib/gcc/x86_64-linux-gnu/10/../../../x86_64-linux-gnu/libc.a(malloc.o)
 .rodata.str1.1
                0x0000000000482fee        0xf /usr/lib/gcc/x86_64-linux-gnu/10/../../../x86_64-linux-gnu/libc.a(_strerror.o)
 *fill*         0x0000000000482ffd        0x3 
 .rodata        0x0000000000483000       0x40 /usr/lib/gcc/x86_64-linux-gnu/10/../../../x86_64-linux-gnu/libc.a(strcmp-sse2.o)
 .rodata        0x0000000000483040       0x40 /usr/lib/gcc/x86_64-linux-gnu/10/../../../x86_64-linux-gnu/libc.a(strcmp-ssse3.o)
 .rodata        0x0000000000483080       0x40 /usr/lib/gcc/x86_64-linux-gnu/10/../../../x86_64-linux-gnu/libc.a(strncmp-sse2.o)
 .rodata        0x00000000004830c0       0x40 /usr/lib/gcc/x86_64-linux-gnu/10/../../../x86_64-linux-gnu/libc.a(strncmp-ssse3.o)
 .rodata.sse4.2
                0x0000000000483100       0x40 /usr/lib/gcc/x86_64-linux-gnu/10/../../../x86_64-linux-gnu/libc.a(strncmp-sse4_2.o)
 .rodata.sse4.1
                0x0000000000483140      0x140 /usr/lib/gcc/x86_64-linux-gnu/10/../../../x86_64-linux-gnu/libc.a(memcmp-sse4.o)
 .rodata.ssse3  0x0000000000483280      0x1c0 /usr/lib/gcc/x86_64-linux-gnu/10/../../../x86_64-linux-gnu/libc.a(memcpy-ssse3.o)
 .rodata.ssse3  0x0000000000483440      0x1c0 /usr/lib/gcc/x86_64-linux-gnu/10/../../../x86_64-linux-gnu/libc.a(memmove-ssse3.o)
 .rodata.ssse3  0x0000000000483600      0x500 /usr/lib/gcc/x86_64-linux-gnu/10/../../../x86_64-linux-gnu/libc.a(memcpy-ssse3-back.o)
 .rodata.ssse3  0x0000000000483b00      0x500 /usr/lib/gcc/x86_64-linux-gnu/10/../../../x86_64-linux-gnu/libc.a(memmove-ssse3-back.o)
 .rodata.cst16  0x0000000000484000       0x30 /usr/lib/gcc/x86_64-linux-gnu/10/../../../x86_64-linux-gnu/libc.a(strcasecmp_l-sse2.o)
 .rodata        0x0000000000484030       0x40 /usr/lib/gcc/x86_64-linux-gnu/10/../../../x86_64-linux-gnu/libc.a(strcasecmp_l-sse2.o)
 .rodata.cst16  0x0000000000484070       0x30 /usr/lib/gcc/x86_64-linux-gnu/10/../../../x86_64-linux-gnu/libc.a(strcasecmp_l-ssse3.o)
 .rodata        0x0000000000484070       0x40 /usr/lib/gcc/x86_64-linux-gnu/10/../../../x86_64-linux-gnu/libc.a(strcasecmp_l-ssse3.o)
 .rodata.cst16  0x00000000004840b0       0x30 /usr/lib/gcc/x86_64-linux-gnu/10/../../../x86_64-linux-gnu/libc.a(strcasecmp_l-sse4_2.o)
 .rodata.sse4.2
                0x00000000004840b0       0x40 /usr/lib/gcc/x86_64-linux-gnu/10/../../../x86_64-linux-gnu/libc.a(strcasecmp_l-sse4_2.o)
 .rodata.cst16  0x00000000004840f0       0x10 /usr/lib/gcc/x86_64-linux-gnu/10/../../../x86_64-linux-gnu/libc.a(strcasecmp_l-avx.o)
                                         0x30 (size before relaxing)
 .rodata.avx    0x0000000000484100       0x40 /usr/lib/gcc/x86_64-linux-gnu/10/../../../x86_64-linux-gnu/libc.a(strcasecmp_l-avx.o)
 .rodata        0x0000000000484140       0x80 /usr/lib/gcc/x86_64-linux-gnu/10/../../../x86_64-linux-gnu/libc.a(strcpy-sse2-unaligned.o)
 .rodata        0x00000000004841c0       0x80 /usr/lib/gcc/x86_64-linux-gnu/10/../../../x86_64-linux-gnu/libc.a(stpcpy-sse2-unaligned.o)
 .rodata        0x0000000000484240       0x1f /usr/lib/gcc/x86_64-linux-gnu/10/../../../x86_64-linux-gnu/libc.a(varshift.o)
                0x0000000000484240                ___m128i_shift_right
 .rodata.str1.1
                0x000000000048425f       0x39 /usr/lib/gcc/x86_64-linux-gnu/10/../../../x86_64-linux-gnu/libc.a(cacheinfo.o)
 *fill*         0x0000000000484298        0x8 
 .rodata        0x00000000004842a0      0x360 /usr/lib/gcc/x86_64-linux-gnu/10/../../../x86_64-linux-gnu/libc.a(cacheinfo.o)
 .rodata.str1.8
                0x0000000000484600        0xb /usr/lib/gcc/x86_64-linux-gnu/10/../../../x86_64-linux-gnu/libc.a(cacheinfo.o)
 *fill*         0x000000000048460b        0x5 
 .rodata.str1.16
                0x0000000000484610       0x11 /usr/lib/gcc/x86_64-linux-gnu/10/../../../x86_64-linux-gnu/libc.a(cacheinfo.o)
 .rodata.str1.1
                0x0000000000484621        0xa /usr/lib/gcc/x86_64-linux-gnu/10/../../../x86_64-linux-gnu/libc.a(wcrtomb.o)
 *fill*         0x000000000048462b        0x5 
 .rodata.str1.8
                0x0000000000484630       0xaa /usr/lib/gcc/x86_64-linux-gnu/10/../../../x86_64-linux-gnu/libc.a(wcrtomb.o)
 .rodata.str1.1
                0x00000000004846da       0x40 /usr/lib/gcc/x86_64-linux-gnu/10/../../../x86_64-linux-gnu/libc.a(wcsrtombs.o)
 *fill*         0x000000000048471a        0x6 
 .rodata.str1.8
                0x0000000000484720       0x34 /usr/lib/gcc/x86_64-linux-gnu/10/../../../x86_64-linux-gnu/libc.a(wcsrtombs.o)
                                         0xd4 (size before relaxing)
 .rodata.str1.1
                0x0000000000484754       0x19 /usr/lib/gcc/x86_64-linux-gnu/10/../../../x86_64-linux-gnu/libc.a(wcsmbsload.o)
                                         0x2c (size before relaxing)
 *fill*         0x000000000048476d        0x3 
 .rodata.str1.8
                0x0000000000484770       0x3c /usr/lib/gcc/x86_64-linux-gnu/10/../../../x86_64-linux-gnu/libc.a(wcsmbsload.o)
 .rodata.str1.1
                0x00000000004847ac       0x19 /usr/lib/gcc/x86_64-linux-gnu/10/../../../x86_64-linux-gnu/libc.a(mbsrtowcs_l.o)
                                         0x33 (size before relaxing)
 *fill*         0x00000000004847c5        0x3 
 .rodata.str1.8
                0x00000000004847c8       0x3e /usr/lib/gcc/x86_64-linux-gnu/10/../../../x86_64-linux-gnu/libc.a(mbsrtowcs_l.o)
                                         0xde (size before relaxing)
 .rodata.str1.1
                0x0000000000484806       0x6e /usr/lib/gcc/x86_64-linux-gnu/10/../../../x86_64-linux-gnu/libc.a(sysconf.o)
 .rodata        0x0000000000484874      0x3dc /usr/lib/gcc/x86_64-linux-gnu/10/../../../x86_64-linux-gnu/libc.a(sysconf.o)
 .rodata.str1.1
                0x0000000000484c50        0x3 /usr/lib/gcc/x86_64-linux-gnu/10/../../../x86_64-linux-gnu/libc.a(getcwd.o)
                                          0x7 (size before relaxing)
 *fill*         0x0000000000484c53        0x5 
 .rodata.str1.8
                0x0000000000484c58       0x61 /usr/lib/gcc/x86_64-linux-gnu/10/../../../x86_64-linux-gnu/libc.a(getcwd.o)
 *fill*         0x0000000000484cb9        0x7 
 .rodata.str1.8
                0x0000000000484cc0       0x3e /usr/lib/gcc/x86_64-linux-gnu/10/../../../x86_64-linux-gnu/libc.a(getpagesize.o)
 .rodata.str1.1
                0x0000000000484cfe       0x17 /usr/lib/gcc/x86_64-linux-gnu/10/../../../x86_64-linux-gnu/libc.a(getpagesize.o)
 *fill*         0x0000000000484d15        0x3 
 .rodata.str1.8
                0x0000000000484d18       0x5a /usr/lib/gcc/x86_64-linux-gnu/10/../../../x86_64-linux-gnu/libc.a(getsysstats.o)
 .rodata.str1.1
                0x0000000000484d72       0x46 /usr/lib/gcc/x86_64-linux-gnu/10/../../../x86_64-linux-gnu/libc.a(getsysstats.o)
 .rodata.str1.1
                0x0000000000484db8        0x1 /usr/lib/gcc/x86_64-linux-gnu/10/../../../x86_64-linux-gnu/libc.a(init-misc.o)
 .rodata.str1.1
                0x0000000000484db8       0x19 /usr/lib/gcc/x86_64-linux-gnu/10/../../../x86_64-linux-gnu/libc.a(chk_fail.o)
 .rodata.str1.1
                0x0000000000484dd1       0x10 /usr/lib/gcc/x86_64-linux-gnu/10/../../../x86_64-linux-gnu/libc.a(readonly-area.o)
                                         0x14 (size before relaxing)
 .rodata.str1.1
                0x0000000000484de1       0x18 /usr/lib/gcc/x86_64-linux-gnu/10/../../../x86_64-linux-gnu/libc.a(stack_chk_fail.o)
 .rodata.str1.1
                0x0000000000484df9       0x18 /usr/lib/gcc/x86_64-linux-gnu/10/../../../x86_64-linux-gnu/libc.a(fortify_fail.o)
 *fill*         0x0000000000484e11        0x7 
 .rodata.str1.8
                0x0000000000484e18      0x1aa /usr/lib/gcc/x86_64-linux-gnu/10/../../../x86_64-linux-gnu/libc.a(dl-tls.o)
 .rodata.str1.1
                0x0000000000484fc2       0x2e /usr/lib/gcc/x86_64-linux-gnu/10/../../../x86_64-linux-gnu/libc.a(dl-tls.o)
 .rodata.str1.16
                0x0000000000484ff0       0x53 /usr/lib/gcc/x86_64-linux-gnu/10/../../../x86_64-linux-gnu/libc.a(dl-tls.o)
 .rodata.str1.1
                0x0000000000485043      0x27c /usr/lib/gcc/x86_64-linux-gnu/10/../../../x86_64-linux-gnu/libc.a(dl-tunables.o)
 *fill*         0x00000000004852bf        0x1 
 .rodata.str1.8
                0x00000000004852c0      0x15f /usr/lib/gcc/x86_64-linux-gnu/10/../../../x86_64-linux-gnu/libc.a(dl-tunables.o)
 *fill*         0x000000000048541f        0x1 
 .rodata        0x0000000000485420      0x22b /usr/lib/gcc/x86_64-linux-gnu/10/../../../x86_64-linux-gnu/libc.a(dl-support.o)
                0x0000000000485600                _dl_x86_platforms
                0x0000000000485630                _dl_x86_hwcap_flags
 .rodata.str1.1
                0x000000000048564b      0x108 /usr/lib/gcc/x86_64-linux-gnu/10/../../../x86_64-linux-gnu/libc.a(dl-support.o)
                                        0x109 (size before relaxing)
 *fill*         0x0000000000485753        0x5 
 .rodata.str1.8
                0x0000000000485758       0xab /usr/lib/gcc/x86_64-linux-gnu/10/../../../x86_64-linux-gnu/libc.a(dl-support.o)
 *fill*         0x0000000000485803        0xd 
 .rodata.str1.16
                0x0000000000485810       0x15 /usr/lib/gcc/x86_64-linux-gnu/10/../../../x86_64-linux-gnu/libc.a(dl-support.o)
 .rodata.str1.1
                0x0000000000485825      0x1fd /usr/lib/gcc/x86_64-linux-gnu/10/../../../x86_64-linux-gnu/libc.a(dl-sysdep.o)
                                        0x22e (size before relaxing)
                0x0000000000485988                _nl_C_name
 *fill*         0x0000000000485a22        0x2 
 .rodata        0x0000000000485a24       0xbc /usr/lib/gcc/x86_64-linux-gnu/10/../../../x86_64-linux-gnu/libc.a(dl-sysdep.o)
 .rodata.str1.1
                0x0000000000485ae0       0x41 /usr/lib/gcc/x86_64-linux-gnu/10/../../../x86_64-linux-gnu/libc.a(dl-error.o)
                                         0x45 (size before relaxing)
 *fill*         0x0000000000485b21        0x7 
 .rodata.str1.8
                0x0000000000485b28       0x25 /usr/lib/gcc/x86_64-linux-gnu/10/../../../x86_64-linux-gnu/libc.a(dl-error.o)
 .rodata.str1.1
                0x0000000000485b4d        0x9 /usr/lib/gcc/x86_64-linux-gnu/10/../../../x86_64-linux-gnu/libc.a(gconv_open.o)
 .rodata.str1.1
                0x0000000000485b4d       0x1d /usr/lib/gcc/x86_64-linux-gnu/10/../../../x86_64-linux-gnu/libc.a(gconv.o)
 *fill*         0x0000000000485b6a        0x6 
 .rodata.str1.8
                0x0000000000485b70       0x30 /usr/lib/gcc/x86_64-linux-gnu/10/../../../x86_64-linux-gnu/libc.a(gconv.o)
 .rodata.str1.1
                0x0000000000485ba0       0x23 /usr/lib/gcc/x86_64-linux-gnu/10/../../../x86_64-linux-gnu/libc.a(gconv_db.o)
 *fill*         0x0000000000485bc3        0xd 
 .rodata.str1.16
                0x0000000000485bd0       0x15 /usr/lib/gcc/x86_64-linux-gnu/10/../../../x86_64-linux-gnu/libc.a(gconv_db.o)
 .rodata.str1.1
                0x0000000000485be5      0x172 /usr/lib/gcc/x86_64-linux-gnu/10/../../../x86_64-linux-gnu/libc.a(gconv_conf.o)
                                        0x181 (size before relaxing)
 *fill*         0x0000000000485d57        0x9 
 .rodata.str1.16
                0x0000000000485d60       0x11 /usr/lib/gcc/x86_64-linux-gnu/10/../../../x86_64-linux-gnu/libc.a(gconv_conf.o)
 *fill*         0x0000000000485d71        0xf 
 .rodata        0x0000000000485d80      0x3e7 /usr/lib/gcc/x86_64-linux-gnu/10/../../../x86_64-linux-gnu/libc.a(gconv_conf.o)
 *fill*         0x0000000000486167        0x1 
 .rodata.str1.8
                0x0000000000486168        0xe /usr/lib/gcc/x86_64-linux-gnu/10/../../../x86_64-linux-gnu/libc.a(gconv_conf.o)
 *fill*         0x0000000000486176        0xa 
 .rodata.cst16  0x0000000000486180       0x10 /usr/lib/gcc/x86_64-linux-gnu/10/../../../x86_64-linux-gnu/libc.a(gconv_conf.o)
 *fill*         0x0000000000486190       0x10 
 .rodata.str1.32
                0x00000000004861a0       0x20 /usr/lib/gcc/x86_64-linux-gnu/10/../../../x86_64-linux-gnu/libc.a(gconv_conf.o)
 .rodata.str1.1
                0x00000000004861c0       0x10 /usr/lib/gcc/x86_64-linux-gnu/10/../../../x86_64-linux-gnu/libc.a(gconv_builtin.o)
                                         0xe4 (size before relaxing)
 .rodata.str1.8
                0x00000000004861d0       0x25 /usr/lib/gcc/x86_64-linux-gnu/10/../../../x86_64-linux-gnu/libc.a(gconv_builtin.o)
 *fill*         0x00000000004861f5        0xb 
 .rodata.str1.16
                0x0000000000486200       0x1a /usr/lib/gcc/x86_64-linux-gnu/10/../../../x86_64-linux-gnu/libc.a(gconv_builtin.o)
 .rodata.str1.1
                0x000000000048621a       0xa1 /usr/lib/gcc/x86_64-linux-gnu/10/../../../x86_64-linux-gnu/libc.a(gconv_simple.o)
 *fill*         0x00000000004862bb        0x5 
 .rodata.str1.8
                0x00000000004862c0       0xf1 /usr/lib/gcc/x86_64-linux-gnu/10/../../../x86_64-linux-gnu/libc.a(gconv_simple.o)
 *fill*         0x00000000004863b1        0xf 
 .rodata.str1.32
                0x00000000004863c0      0x2c0 /usr/lib/gcc/x86_64-linux-gnu/10/../../../x86_64-linux-gnu/libc.a(gconv_simple.o)
 .rodata.str1.16
                0x0000000000486680       0xb5 /usr/lib/gcc/x86_64-linux-gnu/10/../../../x86_64-linux-gnu/libc.a(gconv_simple.o)
 .rodata.str1.1
                0x0000000000486735        0xb /usr/lib/gcc/x86_64-linux-gnu/10/../../../x86_64-linux-gnu/libc.a(gconv_cache.o)
                                         0x14 (size before relaxing)
 .rodata.str1.8
                0x0000000000486740       0x34 /usr/lib/gcc/x86_64-linux-gnu/10/../../../x86_64-linux-gnu/libc.a(gconv_cache.o)
 .rodata.str1.1
                0x0000000000486774       0x4d /usr/lib/gcc/x86_64-linux-gnu/10/../../../x86_64-linux-gnu/libc.a(gconv_dl.o)
 *fill*         0x00000000004867c1        0xf 
 .rodata.str1.16
                0x00000000004867d0       0x33 /usr/lib/gcc/x86_64-linux-gnu/10/../../../x86_64-linux-gnu/libc.a(gconv_dl.o)
 .rodata.str1.1
                0x0000000000486803       0x1a /usr/lib/gcc/x86_64-linux-gnu/10/../../../x86_64-linux-gnu/libc.a(gconv_charset.o)
                                         0x24 (size before relaxing)
 .rodata.str1.1
                0x000000000048681d        0x8 /usr/lib/gcc/x86_64-linux-gnu/10/../../../x86_64-linux-gnu/libc.a(setlocale.o)
 *fill*         0x0000000000486825        0x3 
 .rodata.str1.8
                0x0000000000486828        0xe /usr/lib/gcc/x86_64-linux-gnu/10/../../../x86_64-linux-gnu/libc.a(setlocale.o)
                0x0000000000486828                _nl_category_name_sizes
 *fill*         0x0000000000486836        0xa 
 .rodata        0x0000000000486840       0xa9 /usr/lib/gcc/x86_64-linux-gnu/10/../../../x86_64-linux-gnu/libc.a(setlocale.o)
                0x0000000000486840                _nl_category_name_idxs
                0x0000000000486860                _nl_category_names
 .rodata.str1.1
                0x00000000004868e9       0x35 /usr/lib/gcc/x86_64-linux-gnu/10/../../../x86_64-linux-gnu/libc.a(findlocale.o)
                                         0x3e (size before relaxing)
 *fill*         0x000000000048691e        0x2 
 .rodata.str1.16
                0x0000000000486920       0x20 /usr/lib/gcc/x86_64-linux-gnu/10/../../../x86_64-linux-gnu/libc.a(findlocale.o)
                0x0000000000486930                _nl_default_locale_path
 .rodata        0x0000000000486940       0x34 /usr/lib/gcc/x86_64-linux-gnu/10/../../../x86_64-linux-gnu/libc.a(findlocale.o)
 .rodata.str1.1
                0x0000000000486974       0x22 /usr/lib/gcc/x86_64-linux-gnu/10/../../../x86_64-linux-gnu/libc.a(loadlocale.o)
 *fill*         0x0000000000486996        0xa 
 .rodata        0x00000000004869a0      0x6a8 /usr/lib/gcc/x86_64-linux-gnu/10/../../../x86_64-linux-gnu/libc.a(loadlocale.o)
 *fill*         0x0000000000487048        0x8 
 .rodata.str1.16
                0x0000000000487050       0x17 /usr/lib/gcc/x86_64-linux-gnu/10/../../../x86_64-linux-gnu/libc.a(loadlocale.o)
 *fill*         0x0000000000487067        0x1 
 .rodata.cst8   0x0000000000487068        0x8 /usr/lib/gcc/x86_64-linux-gnu/10/../../../x86_64-linux-gnu/libc.a(loadlocale.o)
 .rodata.str1.1
                0x0000000000487070       0x25 /usr/lib/gcc/x86_64-linux-gnu/10/../../../x86_64-linux-gnu/libc.a(loadarchive.o)
 *fill*         0x0000000000487095        0x3 
 .rodata.str1.8
                0x0000000000487098       0x24 /usr/lib/gcc/x86_64-linux-gnu/10/../../../x86_64-linux-gnu/libc.a(loadarchive.o)
 *fill*         0x00000000004870bc        0x4 
 .rodata.str1.16
                0x00000000004870c0       0x5f /usr/lib/gcc/x86_64-linux-gnu/10/../../../x86_64-linux-gnu/libc.a(loadarchive.o)
 *fill*         0x000000000048711f        0x1 
 .rodata        0x0000000000487120     0xdd84 /usr/lib/gcc/x86_64-linux-gnu/10/../../../x86_64-linux-gnu/libc.a(C-ctype.o)
                0x0000000000487180                _nl_C_LC_CTYPE_width
                0x00000000004871e0                _nl_C_LC_CTYPE_map_tolower
                0x00000000004872a0                _nl_C_LC_CTYPE_map_toupper
                0x0000000000487360                _nl_C_LC_CTYPE_class_alnum
                0x00000000004873c0                _nl_C_LC_CTYPE_class_punct
                0x0000000000487420                _nl_C_LC_CTYPE_class_cntrl
                0x0000000000487480                _nl_C_LC_CTYPE_class_blank
                0x00000000004874e0                _nl_C_LC_CTYPE_class_graph
                0x0000000000487540                _nl_C_LC_CTYPE_class_print
                0x00000000004875a0                _nl_C_LC_CTYPE_class_space
                0x0000000000487600                _nl_C_LC_CTYPE_class_xdigit
                0x0000000000487660                _nl_C_LC_CTYPE_class_digit
                0x00000000004876c0                _nl_C_LC_CTYPE_class_alpha
                0x0000000000487720                _nl_C_LC_CTYPE_class_lower
                0x0000000000487780                _nl_C_LC_CTYPE_class_upper
                0x00000000004877e0                _nl_C_LC_CTYPE_tolower
                0x0000000000487de0                _nl_C_LC_CTYPE_toupper
                0x00000000004883e0                _nl_C_LC_CTYPE_class32
                0x00000000004887e0                _nl_C_LC_CTYPE_class
 .rodata.str1.1
                0x0000000000494ea4        0x6 /usr/lib/gcc/x86_64-linux-gnu/10/../../../x86_64-linux-gnu/libc.a(C-ctype.o)
                                         0x14 (size before relaxing)
 *fill*         0x0000000000494eaa        0x2 
 .rodata.str4.4
                0x0000000000494eac       0x50 /usr/lib/gcc/x86_64-linux-gnu/10/../../../x86_64-linux-gnu/libc.a(C-ctype.o)
                                         0x58 (size before relaxing)
 .rodata.str1.1
                0x0000000000494efc        0x5 /usr/lib/gcc/x86_64-linux-gnu/10/../../../x86_64-linux-gnu/libc.a(SYS_libc.o)
                0x0000000000494efc                _libc_intl_domainname
 *fill*         0x0000000000494f01        0x7 
 .rodata.str1.8
                0x0000000000494f08        0xf /usr/lib/gcc/x86_64-linux-gnu/10/../../../x86_64-linux-gnu/libc.a(C_name.o)
                0x0000000000494f08                _nl_C_codeset
 .rodata.str1.1
                0x0000000000494f17        0x5 /usr/lib/gcc/x86_64-linux-gnu/10/../../../x86_64-linux-gnu/libc.a(C_name.o)
                                          0x8 (size before relaxing)
 *fill*         0x0000000000494f17        0x9 
 .rodata        0x0000000000494f20      0x158 /usr/lib/gcc/x86_64-linux-gnu/10/../../../x86_64-linux-gnu/libc.a(strtol_l.o)
                0x0000000000494f20                __strtol_ul_rem_tab
                0x0000000000494f60                __strtol_ul_max_tab
 *fill*         0x0000000000495078        0x8 
 .rodata.str1.32
                0x0000000000495080       0x25 /usr/lib/gcc/x86_64-linux-gnu/10/../../../x86_64-linux-gnu/libc.a(itoa-digits.o)
                0x0000000000495080                _itoa_lower_digits
 *fill*         0x00000000004950a5       0x1b 
 .rodata.str1.32
                0x00000000004950c0       0x25 /usr/lib/gcc/x86_64-linux-gnu/10/../../../x86_64-linux-gnu/libc.a(itoa-udigits.o)
                0x00000000004950c0                _itoa_upper_digits
 .rodata.str1.1
                0x00000000004950e5       0x10 /usr/lib/gcc/x86_64-linux-gnu/10/../../../x86_64-linux-gnu/libc.a(printf_fp.o)
                                         0x1c (size before relaxing)
 *fill*         0x00000000004950f5        0x3 
 .rodata.str4.4
                0x00000000004950f8       0x5c /usr/lib/gcc/x86_64-linux-gnu/10/../../../x86_64-linux-gnu/libc.a(printf_fp.o)
 *fill*         0x0000000000495154        0xc 
 .rodata.cst16  0x0000000000495160       0x40 /usr/lib/gcc/x86_64-linux-gnu/10/../../../x86_64-linux-gnu/libc.a(printf_fp.o)
 .rodata.cst8   0x00000000004951a0        0x8 /usr/lib/gcc/x86_64-linux-gnu/10/../../../x86_64-linux-gnu/libc.a(printf_fp.o)
 .rodata.str4.4
                0x00000000004951a8       0x40 /usr/lib/gcc/x86_64-linux-gnu/10/../../../x86_64-linux-gnu/libc.a(printf_fphex.o)
 .rodata.str1.1
                0x00000000004951a8       0x10 /usr/lib/gcc/x86_64-linux-gnu/10/../../../x86_64-linux-gnu/libc.a(printf_fphex.o)
 .rodata.str1.8
                0x00000000004951a8       0x57 /usr/lib/gcc/x86_64-linux-gnu/10/../../../x86_64-linux-gnu/libc.a(printf_fphex.o)
 .rodata.cst16  0x00000000004951ff       0x40 /usr/lib/gcc/x86_64-linux-gnu/10/../../../x86_64-linux-gnu/libc.a(printf_fphex.o)
 .rodata.cst8   0x00000000004951ff        0x8 /usr/lib/gcc/x86_64-linux-gnu/10/../../../x86_64-linux-gnu/libc.a(printf_fphex.o)
 .rodata.str1.1
                0x00000000004951ff       0x20 /usr/lib/gcc/x86_64-linux-gnu/10/../../../x86_64-linux-gnu/libc.a(vfwprintf-internal.o)
 *fill*         0x00000000004951ff        0x1 
 .rodata.str4.4
                0x0000000000495200       0x18 /usr/lib/gcc/x86_64-linux-gnu/10/../../../x86_64-linux-gnu/libc.a(vfwprintf-internal.o)
                                         0x1c (size before relaxing)
 .rodata.str1.8
                0x0000000000495218       0xd1 /usr/lib/gcc/x86_64-linux-gnu/10/../../../x86_64-linux-gnu/libc.a(vfwprintf-internal.o)
 *fill*         0x0000000000495218        0x8 
 .rodata        0x0000000000495220       0x7b /usr/lib/gcc/x86_64-linux-gnu/10/../../../x86_64-linux-gnu/libc.a(vfwprintf-internal.o)
 *fill*         0x000000000049529b        0x5 
 .rodata.str1.16
                0x00000000004952a0       0x15 /usr/lib/gcc/x86_64-linux-gnu/10/../../../x86_64-linux-gnu/libc.a(vfwprintf-internal.o)
                                         0x35 (size before relaxing)
 *fill*         0x00000000004952b5        0xb 
 .rodata.str4.16
                0x00000000004952c0       0x1c /usr/lib/gcc/x86_64-linux-gnu/10/../../../x86_64-linux-gnu/libc.a(vfwprintf-internal.o)
 .rodata.str1.1
                0x00000000004952dc      0x8b2 /usr/lib/gcc/x86_64-linux-gnu/10/../../../x86_64-linux-gnu/libc.a(errlist.o)
 *fill*         0x0000000000495b8e        0x2 
 .rodata.str1.8
                0x0000000000495b90      0x3bf /usr/lib/gcc/x86_64-linux-gnu/10/../../../x86_64-linux-gnu/libc.a(errlist.o)
 *fill*         0x0000000000495f4f        0x1 
 .rodata.cst4   0x0000000000495f50        0x4 /usr/lib/gcc/x86_64-linux-gnu/10/../../../x86_64-linux-gnu/libc.a(errlist.o)
                0x0000000000495f50                sys_nerr
                0x0000000000495f50                __sys_nerr_internal
                0x0000000000495f50                _sys_nerr
                0x0000000000495f50                _sys_nerr_internal
 .rodata        0x0000000000495f54      0x244 /usr/lib/gcc/x86_64-linux-gnu/10/../../../x86_64-linux-gnu/libc.a(printf-parsewc.o)
 *fill*         0x0000000000496198        0x8 
 .rodata        0x00000000004961a0       0x80 /usr/lib/gcc/x86_64-linux-gnu/10/../../../x86_64-linux-gnu/libc.a(iowpadn.o)
 .rodata.str1.1
                0x0000000000496220      0x233 /usr/lib/gcc/x86_64-linux-gnu/10/../../../x86_64-linux-gnu/libc.a(dl-load.o)
                                        0x25d (size before relaxing)
 *fill*         0x0000000000496453        0x5 
 .rodata.str1.8
                0x0000000000496458      0x577 /usr/lib/gcc/x86_64-linux-gnu/10/../../../x86_64-linux-gnu/libc.a(dl-load.o)
                                        0x617 (size before relaxing)
 *fill*         0x00000000004969cf        0x1 
 .rodata.str1.16
                0x00000000004969d0       0x5c /usr/lib/gcc/x86_64-linux-gnu/10/../../../x86_64-linux-gnu/libc.a(dl-load.o)
                                         0x7c (size before relaxing)
 *fill*         0x0000000000496a2c        0x4 
 .rodata.cst16  0x0000000000496a30       0x10 /usr/lib/gcc/x86_64-linux-gnu/10/../../../x86_64-linux-gnu/libc.a(dl-load.o)
 .rodata        0x0000000000496a40       0x82 /usr/lib/gcc/x86_64-linux-gnu/10/../../../x86_64-linux-gnu/libc.a(dl-load.o)
 *fill*         0x0000000000496ac2        0x2 
 .rodata.cst4   0x0000000000496ac4        0x4 /usr/lib/gcc/x86_64-linux-gnu/10/../../../x86_64-linux-gnu/libc.a(dl-load.o)
 .rodata.str1.1
                0x0000000000496ac8       0x5c /usr/lib/gcc/x86_64-linux-gnu/10/../../../x86_64-linux-gnu/libc.a(dl-lookup.o)
                                         0x7d (size before relaxing)
 *fill*         0x0000000000496b24        0x4 
 .rodata.str1.8
                0x0000000000496b28      0x26c /usr/lib/gcc/x86_64-linux-gnu/10/../../../x86_64-linux-gnu/libc.a(dl-lookup.o)
 *fill*         0x0000000000496d94        0xc 
 .rodata.str1.16
                0x0000000000496da0       0x14 /usr/lib/gcc/x86_64-linux-gnu/10/../../../x86_64-linux-gnu/libc.a(dl-lookup.o)
 *fill*         0x0000000000496db4        0x4 
 .rodata.str1.8
                0x0000000000496db8      0x29e /usr/lib/gcc/x86_64-linux-gnu/10/../../../x86_64-linux-gnu/libc.a(dl-reloc.o)
 .rodata.str1.1
                0x0000000000497056       0x26 /usr/lib/gcc/x86_64-linux-gnu/10/../../../x86_64-linux-gnu/libc.a(dl-reloc.o)
                                         0x4d (size before relaxing)
 *fill*         0x000000000049707c        0x4 
 .rodata        0x0000000000497080      0x18c /usr/lib/gcc/x86_64-linux-gnu/10/../../../x86_64-linux-gnu/libc.a(dl-reloc.o)
 *fill*         0x000000000049720c       0x14 
 .rodata.str1.32
                0x0000000000497220       0x3b /usr/lib/gcc/x86_64-linux-gnu/10/../../../x86_64-linux-gnu/libc.a(dl-reloc.o)
 *fill*         0x000000000049725b        0x5 
 .rodata.str1.16
                0x0000000000497260       0x1a /usr/lib/gcc/x86_64-linux-gnu/10/../../../x86_64-linux-gnu/libc.a(dl-reloc.o)
 .rodata.str1.1
                0x000000000049727a       0x37 /usr/lib/gcc/x86_64-linux-gnu/10/../../../x86_64-linux-gnu/libc.a(dl-hwcaps.o)
 *fill*         0x00000000004972b1        0xf 
 .rodata.str1.16
                0x00000000004972c0       0x15 /usr/lib/gcc/x86_64-linux-gnu/10/../../../x86_64-linux-gnu/libc.a(dl-hwcaps.o)
 .rodata.str1.1
                0x00000000004972d5       0x36 /usr/lib/gcc/x86_64-linux-gnu/10/../../../x86_64-linux-gnu/libc.a(dl-misc.o)
 *fill*         0x000000000049730b        0x5 
 .rodata.str1.8
                0x0000000000497310       0x20 /usr/lib/gcc/x86_64-linux-gnu/10/../../../x86_64-linux-gnu/libc.a(dl-misc.o)
 *fill*         0x0000000000497330       0x10 
 .rodata        0x0000000000497340       0x78 /usr/lib/gcc/x86_64-linux-gnu/10/../../../x86_64-linux-gnu/libc.a(dl-misc.o)
 *fill*         0x00000000004973b8        0x8 
 .rodata.str1.16
                0x00000000004973c0       0x13 /usr/lib/gcc/x86_64-linux-gnu/10/../../../x86_64-linux-gnu/libc.a(dl-misc.o)
 .rodata.str1.1
                0x00000000004973d3       0x69 /usr/lib/gcc/x86_64-linux-gnu/10/../../../x86_64-linux-gnu/libc.a(dl-profile.o)
 *fill*         0x000000000049743c        0x4 
 .rodata.str1.8
                0x0000000000497440       0x63 /usr/lib/gcc/x86_64-linux-gnu/10/../../../x86_64-linux-gnu/libc.a(dl-profile.o)
 .rodata.str1.1
                0x00000000004974a3       0x21 /usr/lib/gcc/x86_64-linux-gnu/10/../../../x86_64-linux-gnu/libc.a(dl-origin.o)
 *fill*         0x00000000004974c4        0x4 
 .rodata.str1.8
                0x00000000004974c8       0x37 /usr/lib/gcc/x86_64-linux-gnu/10/../../../x86_64-linux-gnu/libc.a(dl-origin.o)
 *fill*         0x00000000004974ff        0x1 
 .rodata.str1.8
                0x0000000000497500       0x86 /usr/lib/gcc/x86_64-linux-gnu/10/../../../x86_64-linux-gnu/libc.a(dl-exception.o)
 .rodata.str1.1
                0x0000000000497586        0x1 /usr/lib/gcc/x86_64-linux-gnu/10/../../../x86_64-linux-gnu/libc.a(dl-exception.o)
 .rodata.str1.1
                0x0000000000497586       0x5d /usr/lib/gcc/x86_64-linux-gnu/10/../../../x86_64-linux-gnu/libc.a(dl-cache.o)
                                         0x6f (size before relaxing)
 *fill*         0x00000000004975e3        0xd 
 .rodata.str1.16
                0x00000000004975f0       0x16 /usr/lib/gcc/x86_64-linux-gnu/10/../../../x86_64-linux-gnu/libc.a(dl-cache.o)
 .rodata.str1.1
                0x0000000000497606       0x2b /usr/lib/gcc/x86_64-linux-gnu/10/../../../x86_64-linux-gnu/libc.a(dl-libc.o)
 .rodata.str1.1
                0x0000000000497631        0xc /usr/lib/gcc/x86_64-linux-gnu/10/../../../x86_64-linux-gnu/libc.a(C-messages.o)
                                          0xd (size before relaxing)
 .rodata.str1.1
                0x000000000049763d        0x2 /usr/lib/gcc/x86_64-linux-gnu/10/../../../x86_64-linux-gnu/libc.a(C-monetary.o)
                                          0x5 (size before relaxing)
 *fill*         0x000000000049763f        0x1 
 .rodata.cst8   0x0000000000497640        0x8 /usr/lib/gcc/x86_64-linux-gnu/10/../../../x86_64-linux-gnu/libc.a(C-monetary.o)
 .rodata.str1.1
                0x0000000000497648        0x3 /usr/lib/gcc/x86_64-linux-gnu/10/../../../x86_64-linux-gnu/libc.a(C-numeric.o)
 .rodata.str1.1
                0x0000000000497648      0x130 /usr/lib/gcc/x86_64-linux-gnu/10/../../../x86_64-linux-gnu/libc.a(C-time.o)
                                        0x131 (size before relaxing)
 .rodata.str4.4
                0x0000000000497778      0x210 /usr/lib/gcc/x86_64-linux-gnu/10/../../../x86_64-linux-gnu/libc.a(C-time.o)
                                        0x214 (size before relaxing)
 .rodata.str4.8
                0x0000000000497988      0x2b0 /usr/lib/gcc/x86_64-linux-gnu/10/../../../x86_64-linux-gnu/libc.a(C-time.o)
 .rodata.str1.1
                0x0000000000497c38        0xf /usr/lib/gcc/x86_64-linux-gnu/10/../../../x86_64-linux-gnu/libc.a(C-name.o)
                                         0x10 (size before relaxing)
 *fill*         0x0000000000497c47        0x1 
 .rodata.str1.8
                0x0000000000497c48       0x2c /usr/lib/gcc/x86_64-linux-gnu/10/../../../x86_64-linux-gnu/libc.a(C-address.o)
 .rodata.str1.1
                0x0000000000497c74        0x1 /usr/lib/gcc/x86_64-linux-gnu/10/../../../x86_64-linux-gnu/libc.a(C-address.o)
 .rodata.str1.1
                0x0000000000497c74        0xa /usr/lib/gcc/x86_64-linux-gnu/10/../../../x86_64-linux-gnu/libc.a(C-telephone.o)
                                          0xb (size before relaxing)
 .rodata.str1.1
                0x0000000000497c7e        0x2 /usr/lib/gcc/x86_64-linux-gnu/10/../../../x86_64-linux-gnu/libc.a(C-measurement.o)
 .rodata.str1.1
                0x0000000000497c7e       0x67 /usr/lib/gcc/x86_64-linux-gnu/10/../../../x86_64-linux-gnu/libc.a(C-identification.o)
                                         0x68 (size before relaxing)
 *fill*         0x0000000000497ce5        0x3 
 .rodata.str1.8
                0x0000000000497ce8       0x6c /usr/lib/gcc/x86_64-linux-gnu/10/../../../x86_64-linux-gnu/libc.a(C-identification.o)
 *fill*         0x0000000000497d54        0x4 
 .rodata        0x0000000000497d58       0xa1 /usr/lib/gcc/x86_64-linux-gnu/10/../../../x86_64-linux-gnu/libc.a(C-identification.o)
 *fill*         0x0000000000497df9        0x7 
 .rodata        0x0000000000497e00      0x520 /usr/lib/gcc/x86_64-linux-gnu/10/../../../x86_64-linux-gnu/libc.a(C-collate.o)
 .rodata        0x0000000000498320     0x3768 /usr/lib/gcc/x86_64-linux-gnu/10/../../../x86_64-linux-gnu/libc.a(fpioconst.o)
                0x0000000000498320                _fpioconst_pow10
                0x00000000004984a0                __tens
 *fill*         0x000000000049ba88       0x18 
 .rodata        0x000000000049baa0      0x130 /usr/lib/gcc/x86_64-linux-gnu/10/../../../x86_64-linux-gnu/libc.a(itowa-digits.o)
                0x000000000049baa0                _itowa_upper_digits
                0x000000000049bb40                _itowa_lower_digits
 .rodata.str1.1
                0x000000000049bbd0       0x25 /usr/lib/gcc/x86_64-linux-gnu/10/../../../x86_64-linux-gnu/libc.a(sdlerror.o)
                                         0x30 (size before relaxing)
 .rodata.str1.1
                0x000000000049bbf5       0x1b /usr/lib/gcc/x86_64-linux-gnu/10/../../../x86_64-linux-gnu/libc.a(sdlinfo.o)
 .rodata        0x000000000049bc10       0x2c /usr/lib/gcc/x86_64-linux-gnu/10/../../../x86_64-linux-gnu/libc.a(sdlinfo.o)
 .rodata.str1.1
                0x000000000049bc3c       0x12 /usr/lib/gcc/x86_64-linux-gnu/10/../../../x86_64-linux-gnu/libc.a(sdlmopen.o)
                                         0x13 (size before relaxing)
 .rodata.str1.1
                0x000000000049bc4e        0xe /usr/lib/gcc/x86_64-linux-gnu/10/../../../x86_64-linux-gnu/libc.a(strerror.o)
 .rodata.str1.1
                0x000000000049bc5c       0x14 /usr/lib/gcc/x86_64-linux-gnu/10/../../../x86_64-linux-gnu/libc.a(dl-runtime.o)
 .rodata.str1.8
                0x000000000049bc70       0x42 /usr/lib/gcc/x86_64-linux-gnu/10/../../../x86_64-linux-gnu/libc.a(dl-runtime.o)
 *fill*         0x000000000049bcb2        0xe 
 .rodata.str1.16
                0x000000000049bcc0       0x12 /usr/lib/gcc/x86_64-linux-gnu/10/../../../x86_64-linux-gnu/libc.a(dl-runtime.o)
 .rodata.str1.1
                0x000000000049bcd2       0xf5 /usr/lib/gcc/x86_64-linux-gnu/10/../../../x86_64-linux-gnu/libc.a(dl-open.o)
                                        0x128 (size before relaxing)
 *fill*         0x000000000049bdc7        0x1 
 .rodata.str1.8
                0x000000000049bdc8      0x209 /usr/lib/gcc/x86_64-linux-gnu/10/../../../x86_64-linux-gnu/libc.a(dl-open.o)
 *fill*         0x000000000049bfd1        0xf 
 .rodata.str1.16
                0x000000000049bfe0       0x58 /usr/lib/gcc/x86_64-linux-gnu/10/../../../x86_64-linux-gnu/libc.a(dl-open.o)
 .rodata.str1.1
                0x000000000049c038       0xd6 /usr/lib/gcc/x86_64-linux-gnu/10/../../../x86_64-linux-gnu/libc.a(dl-close.o)
                                        0x102 (size before relaxing)
 *fill*         0x000000000049c10e        0x2 
 .rodata.str1.8
                0x000000000049c110      0x147 /usr/lib/gcc/x86_64-linux-gnu/10/../../../x86_64-linux-gnu/libc.a(dl-close.o)
 *fill*         0x000000000049c257        0x9 
 .rodata.str1.16
                0x000000000049c260       0x21 /usr/lib/gcc/x86_64-linux-gnu/10/../../../x86_64-linux-gnu/libc.a(dl-close.o)
 .rodata.str1.1
                0x000000000049c281       0x17 /usr/lib/gcc/x86_64-linux-gnu/10/../../../x86_64-linux-gnu/libc.a(sdlopen.o)
                                         0x18 (size before relaxing)
 .rodata.str1.1
                0x000000000049c298       0x17 /usr/lib/gcc/x86_64-linux-gnu/10/../../../x86_64-linux-gnu/libc.a(dl-deps.o)
                                         0x26 (size before relaxing)
 *fill*         0x000000000049c2af        0x1 
 .rodata.str1.8
                0x000000000049c2b0      0x1bb /usr/lib/gcc/x86_64-linux-gnu/10/../../../x86_64-linux-gnu/libc.a(dl-deps.o)
                                        0x1e3 (size before relaxing)
 *fill*         0x000000000049c46b        0x5 
 .rodata.str1.16
                0x000000000049c470       0x14 /usr/lib/gcc/x86_64-linux-gnu/10/../../../x86_64-linux-gnu/libc.a(dl-deps.o)
 .rodata.str1.1
                0x000000000049c484       0x2b /usr/lib/gcc/x86_64-linux-gnu/10/../../../x86_64-linux-gnu/libc.a(dl-init.o)
                                         0x3a (size before relaxing)
 .rodata.str1.1
                0x000000000049c4af       0x41 /usr/lib/gcc/x86_64-linux-gnu/10/../../../x86_64-linux-gnu/libc.a(dl-version.o)
                                         0x50 (size before relaxing)
 .rodata.str1.8
                0x000000000049c4f0      0x165 /usr/lib/gcc/x86_64-linux-gnu/10/../../../x86_64-linux-gnu/libc.a(dl-version.o)
 *fill*         0x000000000049c655        0xb 
 .rodata.str1.16
                0x000000000049c660       0x17 /usr/lib/gcc/x86_64-linux-gnu/10/../../../x86_64-linux-gnu/libc.a(dl-version.o)
 *fill*         0x000000000049c677        0x1 
 .rodata.str1.8
                0x000000000049c678       0x2e /usr/lib/gcc/x86_64-linux-gnu/10/../../../x86_64-linux-gnu/libc.a(dl-sym.o)
 *fill*         0x000000000049c6a6        0x2 
 .rodata.cst4   0x000000000049c6a8        0x8 /usr/lib/gcc/x86_64-linux-gnu/10/libgcc.a(sfp-exceptions.o)
                                          0xc (size before relaxing)
 .rodata        0x000000000049c6b0      0x594 /usr/lib/gcc/x86_64-linux-gnu/10/libgcc_eh.a(unwind-dw2.o)
 *fill*         0x000000000049cc44        0x4 
 .rodata        0x000000000049cc48       0x40 /usr/lib/gcc/x86_64-linux-gnu/10/libgcc_eh.a(unwind-dw2-fde-dip.o)
 .rodata        0x000000000049cc88       0x34 /usr/lib/gcc/x86_64-linux-gnu/10/libgcc_eh.a(unwind-c.o)

.rodata1
 *(.rodata1)

.eh_frame_hdr
 *(.eh_frame_hdr)
 *(.eh_frame_entry .eh_frame_entry.*)

.eh_frame       0x000000000049ccc0     0xa394
 *(.eh_frame)
 .eh_frame      0x000000000049ccc0       0x58 /usr/lib/gcc/x86_64-linux-gnu/10/../../../x86_64-linux-gnu/crt1.o
                                         0x5c (size before relaxing)
 .eh_frame      0x000000000049cd18        0x0 /usr/lib/gcc/x86_64-linux-gnu/10/crtbeginT.o
 *fill*         0x000000000049cd18        0x0 
 .eh_frame      0x000000000049cd18       0x78 /usr/lib/gcc/x86_64-linux-gnu/10/../../../x86_64-linux-gnu/libc.a(libc-start.o)
                                         0x90 (size before relaxing)
 .eh_frame      0x000000000049cd90       0x50 /usr/lib/gcc/x86_64-linux-gnu/10/../../../x86_64-linux-gnu/libc.a(check_fds.o)
                                         0x68 (size before relaxing)
 .eh_frame      0x000000000049cde0       0x50 /usr/lib/gcc/x86_64-linux-gnu/10/../../../x86_64-linux-gnu/libc.a(libc-tls.o)
                                         0x68 (size before relaxing)
 .eh_frame      0x000000000049ce30       0x70 /usr/lib/gcc/x86_64-linux-gnu/10/../../../x86_64-linux-gnu/libc.a(elf-init.o)
                                         0x88 (size before relaxing)
 .eh_frame      0x000000000049cea0       0xa0 /usr/lib/gcc/x86_64-linux-gnu/10/../../../x86_64-linux-gnu/libc.a(assert.o)
                                         0xb8 (size before relaxing)
 .eh_frame      0x000000000049cf40       0x18 /usr/lib/gcc/x86_64-linux-gnu/10/../../../x86_64-linux-gnu/libc.a(dcgettext.o)
                                         0x30 (size before relaxing)
 .eh_frame      0x000000000049cf58       0xf0 /usr/lib/gcc/x86_64-linux-gnu/10/../../../x86_64-linux-gnu/libc.a(dcigettext.o)
                                        0x108 (size before relaxing)
 .eh_frame      0x000000000049d048       0xb0 /usr/lib/gcc/x86_64-linux-gnu/10/../../../x86_64-linux-gnu/libc.a(finddomain.o)
                                         0xc8 (size before relaxing)
 .eh_frame      0x000000000049d0f8       0xc8 /usr/lib/gcc/x86_64-linux-gnu/10/../../../x86_64-linux-gnu/libc.a(loadmsgcat.o)
                                         0xe0 (size before relaxing)
 .eh_frame      0x000000000049d1c0       0x90 /usr/lib/gcc/x86_64-linux-gnu/10/../../../x86_64-linux-gnu/libc.a(localealias.o)
                                         0xa8 (size before relaxing)
 .eh_frame      0x000000000049d250       0xa8 /usr/lib/gcc/x86_64-linux-gnu/10/../../../x86_64-linux-gnu/libc.a(l10nflist.o)
                                         0xc0 (size before relaxing)
 .eh_frame      0x000000000049d2f8       0x50 /usr/lib/gcc/x86_64-linux-gnu/10/../../../x86_64-linux-gnu/libc.a(explodename.o)
                                         0x68 (size before relaxing)
 .eh_frame      0x000000000049d348       0x78 /usr/lib/gcc/x86_64-linux-gnu/10/../../../x86_64-linux-gnu/libc.a(plural.o)
                                         0x90 (size before relaxing)
 .eh_frame      0x000000000049d3c0       0x48 /usr/lib/gcc/x86_64-linux-gnu/10/../../../x86_64-linux-gnu/libc.a(plural-exp.o)
                                         0x60 (size before relaxing)
 .eh_frame      0x000000000049d408       0x18 /usr/lib/gcc/x86_64-linux-gnu/10/../../../x86_64-linux-gnu/libc.a(hash-string.o)
                                         0x30 (size before relaxing)
 .eh_frame      0x000000000049d420       0x18 /usr/lib/gcc/x86_64-linux-gnu/10/../../../x86_64-linux-gnu/libc.a(bsd-_setjmp.o)
                                         0x30 (size before relaxing)
 .eh_frame      0x000000000049d438       0x20 /usr/lib/gcc/x86_64-linux-gnu/10/../../../x86_64-linux-gnu/libc.a(raise.o)
                                         0x38 (size before relaxing)
 .eh_frame      0x000000000049d458       0x20 /usr/lib/gcc/x86_64-linux-gnu/10/../../../x86_64-linux-gnu/libc.a(abort.o)
                                         0x38 (size before relaxing)
 .eh_frame      0x000000000049d478       0x90 /usr/lib/gcc/x86_64-linux-gnu/10/../../../x86_64-linux-gnu/libc.a(msort.o)
                                         0xa8 (size before relaxing)
 .eh_frame      0x000000000049d508       0x50 /usr/lib/gcc/x86_64-linux-gnu/10/../../../x86_64-linux-gnu/libc.a(getenv.o)
                                         0x68 (size before relaxing)
 .eh_frame      0x000000000049d558       0x48 /usr/lib/gcc/x86_64-linux-gnu/10/../../../x86_64-linux-gnu/libc.a(exit.o)
                                         0x60 (size before relaxing)
 .eh_frame      0x000000000049d5a0       0x98 /usr/lib/gcc/x86_64-linux-gnu/10/../../../x86_64-linux-gnu/libc.a(cxa_atexit.o)
                                         0xb0 (size before relaxing)
 .eh_frame      0x000000000049d638       0x28 /usr/lib/gcc/x86_64-linux-gnu/10/../../../x86_64-linux-gnu/libc.a(strtoul.o)
                                         0x40 (size before relaxing)
 .eh_frame      0x000000000049d660       0x60 /usr/lib/gcc/x86_64-linux-gnu/10/../../../x86_64-linux-gnu/libc.a(strtoul_l.o)
                                         0x78 (size before relaxing)
 .eh_frame      0x000000000049d6c0       0x50 /usr/lib/gcc/x86_64-linux-gnu/10/../../../x86_64-linux-gnu/libc.a(grouping.o)
                                         0x68 (size before relaxing)
 .eh_frame      0x000000000049d710       0x20 /usr/lib/gcc/x86_64-linux-gnu/10/../../../x86_64-linux-gnu/libc.a(fprintf.o)
                                         0x38 (size before relaxing)
 .eh_frame      0x000000000049d730       0x20 /usr/lib/gcc/x86_64-linux-gnu/10/../../../x86_64-linux-gnu/libc.a(asprintf.o)
                                         0x38 (size before relaxing)
 .eh_frame      0x000000000049d750      0x1a8 /usr/lib/gcc/x86_64-linux-gnu/10/../../../x86_64-linux-gnu/libc.a(vfprintf-internal.o)
                                        0x1c0 (size before relaxing)
 .eh_frame      0x000000000049d8f8       0x70 /usr/lib/gcc/x86_64-linux-gnu/10/../../../x86_64-linux-gnu/libc.a(printf-parsemb.o)
                                         0x88 (size before relaxing)
 .eh_frame      0x000000000049d968       0xb0 /usr/lib/gcc/x86_64-linux-gnu/10/../../../x86_64-linux-gnu/libc.a(fxprintf.o)
                                         0xc8 (size before relaxing)
 .eh_frame      0x000000000049da18       0x98 /usr/lib/gcc/x86_64-linux-gnu/10/../../../x86_64-linux-gnu/libc.a(iofclose.o)
 .eh_frame      0x000000000049dab0       0x78 /usr/lib/gcc/x86_64-linux-gnu/10/../../../x86_64-linux-gnu/libc.a(iofflush.o)
                                         0x98 (size before relaxing)
 .eh_frame      0x000000000049db28       0x78 /usr/lib/gcc/x86_64-linux-gnu/10/../../../x86_64-linux-gnu/libc.a(iofopen.o)
                                         0x90 (size before relaxing)
 .eh_frame      0x000000000049dba0       0x50 /usr/lib/gcc/x86_64-linux-gnu/10/../../../x86_64-linux-gnu/libc.a(iopadn.o)
                                         0x68 (size before relaxing)
 .eh_frame      0x000000000049dbf0       0x80 /usr/lib/gcc/x86_64-linux-gnu/10/../../../x86_64-linux-gnu/libc.a(ioputs.o)
                                         0xa0 (size before relaxing)
 .eh_frame      0x000000000049dc70      0x330 /usr/lib/gcc/x86_64-linux-gnu/10/../../../x86_64-linux-gnu/libc.a(wfileops.o)
                                        0x368 (size before relaxing)
 .eh_frame      0x000000000049dfa0      0x120 /usr/lib/gcc/x86_64-linux-gnu/10/../../../x86_64-linux-gnu/libc.a(iofwide.o)
                                        0x138 (size before relaxing)
 .eh_frame      0x000000000049e0c0       0x60 /usr/lib/gcc/x86_64-linux-gnu/10/../../../x86_64-linux-gnu/libc.a(getc.o)
                                         0xa8 (size before relaxing)
 .eh_frame      0x000000000049e120       0x68 /usr/lib/gcc/x86_64-linux-gnu/10/../../../x86_64-linux-gnu/libc.a(vasprintf.o)
                                         0x80 (size before relaxing)
 .eh_frame      0x000000000049e188       0x50 /usr/lib/gcc/x86_64-linux-gnu/10/../../../x86_64-linux-gnu/libc.a(libc_fatal.o)
                                         0x68 (size before relaxing)
 .eh_frame      0x000000000049e1d8       0x18 /usr/lib/gcc/x86_64-linux-gnu/10/../../../x86_64-linux-gnu/libc.a(vtables.o)
                                         0x30 (size before relaxing)
 .eh_frame      0x000000000049e1f0       0x40 /usr/lib/gcc/x86_64-linux-gnu/10/../../../x86_64-linux-gnu/libc.a(iofgets_u.o)
                                         0x58 (size before relaxing)
 .eh_frame      0x000000000049e230      0x6c8 /usr/lib/gcc/x86_64-linux-gnu/10/../../../x86_64-linux-gnu/libc.a(fileops.o)
                                        0x700 (size before relaxing)
 .eh_frame      0x000000000049e8f8      0x820 /usr/lib/gcc/x86_64-linux-gnu/10/../../../x86_64-linux-gnu/libc.a(genops.o)
                                        0x838 (size before relaxing)
 .eh_frame      0x000000000049f118      0x1f8 /usr/lib/gcc/x86_64-linux-gnu/10/../../../x86_64-linux-gnu/libc.a(strops.o)
                                        0x210 (size before relaxing)
 .eh_frame      0x000000000049f310       0x18 /usr/lib/gcc/x86_64-linux-gnu/10/../../../x86_64-linux-gnu/libc.a(alloca_cutoff.o)
                                         0x30 (size before relaxing)
 .eh_frame      0x000000000049f328       0x18 /usr/lib/gcc/x86_64-linux-gnu/10/../../../x86_64-linux-gnu/libc.a(libc-lowlevellock.o)
                                         0x30 (size before relaxing)
 .eh_frame      0x000000000049f340      0xb70 /usr/lib/gcc/x86_64-linux-gnu/10/../../../x86_64-linux-gnu/libc.a(malloc.o)
                                        0xb88 (size before relaxing)
 .eh_frame      0x000000000049feb0       0x18 /usr/lib/gcc/x86_64-linux-gnu/10/../../../x86_64-linux-gnu/libc.a(morecore.o)
                                         0x30 (size before relaxing)
 .eh_frame      0x000000000049fec8       0x40 /usr/lib/gcc/x86_64-linux-gnu/10/../../../x86_64-linux-gnu/libc.a(scratch_buffer_grow_preserve.o)
                                         0x58 (size before relaxing)
 .eh_frame      0x000000000049ff08       0x40 /usr/lib/gcc/x86_64-linux-gnu/10/../../../x86_64-linux-gnu/libc.a(scratch_buffer_set_array_size.o)
                                         0x58 (size before relaxing)
 .eh_frame      0x000000000049ff48       0x18 /usr/lib/gcc/x86_64-linux-gnu/10/../../../x86_64-linux-gnu/libc.a(strchr.o)
                                         0x30 (size before relaxing)
 .eh_frame      0x000000000049ff60       0x18 /usr/lib/gcc/x86_64-linux-gnu/10/../../../x86_64-linux-gnu/libc.a(strcmp.o)
                                         0x30 (size before relaxing)
 .eh_frame      0x000000000049ff78       0x18 /usr/lib/gcc/x86_64-linux-gnu/10/../../../x86_64-linux-gnu/libc.a(strcpy.o)
                                         0x30 (size before relaxing)
 .eh_frame      0x000000000049ff90       0x18 /usr/lib/gcc/x86_64-linux-gnu/10/../../../x86_64-linux-gnu/libc.a(strcspn.o)
                                         0x30 (size before relaxing)
 .eh_frame      0x000000000049ffa8       0x38 /usr/lib/gcc/x86_64-linux-gnu/10/../../../x86_64-linux-gnu/libc.a(strdup.o)
                                         0x50 (size before relaxing)
 .eh_frame      0x000000000049ffe0       0x68 /usr/lib/gcc/x86_64-linux-gnu/10/../../../x86_64-linux-gnu/libc.a(_strerror.o)
                                         0x80 (size before relaxing)
 .eh_frame      0x00000000004a0048       0x18 /usr/lib/gcc/x86_64-linux-gnu/10/../../../x86_64-linux-gnu/libc.a(strlen.o)
                                         0x30 (size before relaxing)
 .eh_frame      0x00000000004a0060       0x18 /usr/lib/gcc/x86_64-linux-gnu/10/../../../x86_64-linux-gnu/libc.a(strnlen.o)
                                         0x30 (size before relaxing)
 .eh_frame      0x00000000004a0078       0x18 /usr/lib/gcc/x86_64-linux-gnu/10/../../../x86_64-linux-gnu/libc.a(strncmp.o)
                                         0x30 (size before relaxing)
 .eh_frame      0x00000000004a0090       0xd0 /usr/lib/gcc/x86_64-linux-gnu/10/../../../x86_64-linux-gnu/libc.a(strstr.o)
                                         0xe8 (size before relaxing)
 .eh_frame      0x00000000004a0160       0x18 /usr/lib/gcc/x86_64-linux-gnu/10/../../../x86_64-linux-gnu/libc.a(memcmp.o)
                                         0x30 (size before relaxing)
 .eh_frame      0x00000000004a0178       0x18 /usr/lib/gcc/x86_64-linux-gnu/10/../../../x86_64-linux-gnu/libc.a(memmove.o)
                                         0x30 (size before relaxing)
 .eh_frame      0x00000000004a0190       0x18 /usr/lib/gcc/x86_64-linux-gnu/10/../../../x86_64-linux-gnu/libc.a(memset.o)
                                         0x30 (size before relaxing)
 .eh_frame      0x00000000004a01a8       0x18 /usr/lib/gcc/x86_64-linux-gnu/10/../../../x86_64-linux-gnu/libc.a(mempcpy.o)
                                         0x30 (size before relaxing)
 .eh_frame      0x00000000004a01c0       0x18 /usr/lib/gcc/x86_64-linux-gnu/10/../../../x86_64-linux-gnu/libc.a(stpcpy.o)
                                         0x30 (size before relaxing)
 .eh_frame      0x00000000004a01d8       0x18 /usr/lib/gcc/x86_64-linux-gnu/10/../../../x86_64-linux-gnu/libc.a(strcasecmp_l.o)
                                         0x30 (size before relaxing)
 .eh_frame      0x00000000004a01f0       0x18 /usr/lib/gcc/x86_64-linux-gnu/10/../../../x86_64-linux-gnu/libc.a(memcpy.o)
                                         0x30 (size before relaxing)
 .eh_frame      0x00000000004a0208       0x18 /usr/lib/gcc/x86_64-linux-gnu/10/../../../x86_64-linux-gnu/libc.a(rawmemchr.o)
                                         0x30 (size before relaxing)
 .eh_frame      0x00000000004a0220       0x18 /usr/lib/gcc/x86_64-linux-gnu/10/../../../x86_64-linux-gnu/libc.a(strchrnul.o)
                                         0x30 (size before relaxing)
 .eh_frame      0x00000000004a0238       0x18 /usr/lib/gcc/x86_64-linux-gnu/10/../../../x86_64-linux-gnu/libc.a(strcmp-sse2.o)
                                         0x30 (size before relaxing)
 .eh_frame      0x00000000004a0250       0x18 /usr/lib/gcc/x86_64-linux-gnu/10/../../../x86_64-linux-gnu/libc.a(strcmp-sse2-unaligned.o)
                                         0x30 (size before relaxing)
 .eh_frame      0x00000000004a0268       0x18 /usr/lib/gcc/x86_64-linux-gnu/10/../../../x86_64-linux-gnu/libc.a(strcmp-ssse3.o)
                                         0x30 (size before relaxing)
 .eh_frame      0x00000000004a0280       0x18 /usr/lib/gcc/x86_64-linux-gnu/10/../../../x86_64-linux-gnu/libc.a(strcmp-avx2.o)
                                         0x30 (size before relaxing)
 .eh_frame      0x00000000004a0298       0x18 /usr/lib/gcc/x86_64-linux-gnu/10/../../../x86_64-linux-gnu/libc.a(strncmp-sse2.o)
                                         0x30 (size before relaxing)
 .eh_frame      0x00000000004a02b0       0x18 /usr/lib/gcc/x86_64-linux-gnu/10/../../../x86_64-linux-gnu/libc.a(strncmp-ssse3.o)
                                         0x30 (size before relaxing)
 .eh_frame      0x00000000004a02c8       0x18 /usr/lib/gcc/x86_64-linux-gnu/10/../../../x86_64-linux-gnu/libc.a(strncmp-sse4_2.o)
                                         0x30 (size before relaxing)
 .eh_frame      0x00000000004a02e0       0x18 /usr/lib/gcc/x86_64-linux-gnu/10/../../../x86_64-linux-gnu/libc.a(strncmp-avx2.o)
                                         0x30 (size before relaxing)
 .eh_frame      0x00000000004a02f8       0x18 /usr/lib/gcc/x86_64-linux-gnu/10/../../../x86_64-linux-gnu/libc.a(rawmemchr-sse2.o)
                                         0x30 (size before relaxing)
 .eh_frame      0x00000000004a0310       0x18 /usr/lib/gcc/x86_64-linux-gnu/10/../../../x86_64-linux-gnu/libc.a(rawmemchr-avx2.o)
                                         0x30 (size before relaxing)
 .eh_frame      0x00000000004a0328       0x18 /usr/lib/gcc/x86_64-linux-gnu/10/../../../x86_64-linux-gnu/libc.a(memcmp-sse2.o)
                                         0x30 (size before relaxing)
 .eh_frame      0x00000000004a0340       0x18 /usr/lib/gcc/x86_64-linux-gnu/10/../../../x86_64-linux-gnu/libc.a(memcmp-avx2-movbe.o)
                                         0x30 (size before relaxing)
 .eh_frame      0x00000000004a0358       0x18 /usr/lib/gcc/x86_64-linux-gnu/10/../../../x86_64-linux-gnu/libc.a(memcmp-sse4.o)
                                         0x30 (size before relaxing)
 .eh_frame      0x00000000004a0370       0x50 /usr/lib/gcc/x86_64-linux-gnu/10/../../../x86_64-linux-gnu/libc.a(memcpy-ssse3.o)
                                         0x68 (size before relaxing)
 .eh_frame      0x00000000004a03c0       0x28 /usr/lib/gcc/x86_64-linux-gnu/10/../../../x86_64-linux-gnu/libc.a(memmove-ssse3.o)
                                         0x40 (size before relaxing)
 .eh_frame      0x00000000004a03e8       0x50 /usr/lib/gcc/x86_64-linux-gnu/10/../../../x86_64-linux-gnu/libc.a(memcpy-ssse3-back.o)
                                         0x68 (size before relaxing)
 .eh_frame      0x00000000004a0438       0x28 /usr/lib/gcc/x86_64-linux-gnu/10/../../../x86_64-linux-gnu/libc.a(memmove-ssse3-back.o)
                                         0x40 (size before relaxing)
 .eh_frame      0x00000000004a0460       0x50 /usr/lib/gcc/x86_64-linux-gnu/10/../../../x86_64-linux-gnu/libc.a(memmove-avx512-no-vzeroupper.o)
                                         0x68 (size before relaxing)
 .eh_frame      0x00000000004a04b0       0x28 /usr/lib/gcc/x86_64-linux-gnu/10/../../../x86_64-linux-gnu/libc.a(strcasecmp_l-sse2.o)
                                         0x40 (size before relaxing)
 .eh_frame      0x00000000004a04d8       0x28 /usr/lib/gcc/x86_64-linux-gnu/10/../../../x86_64-linux-gnu/libc.a(strcasecmp_l-ssse3.o)
                                         0x40 (size before relaxing)
 .eh_frame      0x00000000004a0500       0x28 /usr/lib/gcc/x86_64-linux-gnu/10/../../../x86_64-linux-gnu/libc.a(strcasecmp_l-sse4_2.o)
                                         0x40 (size before relaxing)
 .eh_frame      0x00000000004a0528       0x28 /usr/lib/gcc/x86_64-linux-gnu/10/../../../x86_64-linux-gnu/libc.a(strcasecmp_l-avx.o)
                                         0x40 (size before relaxing)
 .eh_frame      0x00000000004a0550       0x18 /usr/lib/gcc/x86_64-linux-gnu/10/../../../x86_64-linux-gnu/libc.a(strchr-sse2.o)
                                         0x30 (size before relaxing)
 .eh_frame      0x00000000004a0568       0x18 /usr/lib/gcc/x86_64-linux-gnu/10/../../../x86_64-linux-gnu/libc.a(strchrnul-sse2.o)
                                         0x30 (size before relaxing)
 .eh_frame      0x00000000004a0580       0x18 /usr/lib/gcc/x86_64-linux-gnu/10/../../../x86_64-linux-gnu/libc.a(strchr-avx2.o)
                                         0x30 (size before relaxing)
 .eh_frame      0x00000000004a0598       0x18 /usr/lib/gcc/x86_64-linux-gnu/10/../../../x86_64-linux-gnu/libc.a(strchrnul-avx2.o)
                                         0x30 (size before relaxing)
 .eh_frame      0x00000000004a05b0       0x18 /usr/lib/gcc/x86_64-linux-gnu/10/../../../x86_64-linux-gnu/libc.a(strlen-sse2.o)
                                         0x30 (size before relaxing)
 .eh_frame      0x00000000004a05c8       0x18 /usr/lib/gcc/x86_64-linux-gnu/10/../../../x86_64-linux-gnu/libc.a(strnlen-sse2.o)
                                         0x30 (size before relaxing)
 .eh_frame      0x00000000004a05e0       0x18 /usr/lib/gcc/x86_64-linux-gnu/10/../../../x86_64-linux-gnu/libc.a(strlen-avx2.o)
                                         0x30 (size before relaxing)
 .eh_frame      0x00000000004a05f8       0x18 /usr/lib/gcc/x86_64-linux-gnu/10/../../../x86_64-linux-gnu/libc.a(strnlen-avx2.o)
                                         0x30 (size before relaxing)
 .eh_frame      0x00000000004a0610       0x18 /usr/lib/gcc/x86_64-linux-gnu/10/../../../x86_64-linux-gnu/libc.a(strcpy-avx2.o)
                                         0x30 (size before relaxing)
 .eh_frame      0x00000000004a0628       0x18 /usr/lib/gcc/x86_64-linux-gnu/10/../../../x86_64-linux-gnu/libc.a(strcpy-sse2.o)
                                         0x30 (size before relaxing)
 .eh_frame      0x00000000004a0640       0x18 /usr/lib/gcc/x86_64-linux-gnu/10/../../../x86_64-linux-gnu/libc.a(stpcpy-sse2.o)
                                         0x30 (size before relaxing)
 .eh_frame      0x00000000004a0658       0x18 /usr/lib/gcc/x86_64-linux-gnu/10/../../../x86_64-linux-gnu/libc.a(strcpy-ssse3.o)
                                         0x30 (size before relaxing)
 .eh_frame      0x00000000004a0670       0x18 /usr/lib/gcc/x86_64-linux-gnu/10/../../../x86_64-linux-gnu/libc.a(stpcpy-ssse3.o)
                                         0x30 (size before relaxing)
 .eh_frame      0x00000000004a0688       0x18 /usr/lib/gcc/x86_64-linux-gnu/10/../../../x86_64-linux-gnu/libc.a(strcpy-sse2-unaligned.o)
                                         0x30 (size before relaxing)
 .eh_frame      0x00000000004a06a0       0x18 /usr/lib/gcc/x86_64-linux-gnu/10/../../../x86_64-linux-gnu/libc.a(stpcpy-sse2-unaligned.o)
                                         0x30 (size before relaxing)
 .eh_frame      0x00000000004a06b8       0x18 /usr/lib/gcc/x86_64-linux-gnu/10/../../../x86_64-linux-gnu/libc.a(stpcpy-avx2.o)
                                         0x30 (size before relaxing)
 .eh_frame      0x00000000004a06d0       0x18 /usr/lib/gcc/x86_64-linux-gnu/10/../../../x86_64-linux-gnu/libc.a(strchr-sse2-no-bsf.o)
                                         0x30 (size before relaxing)
 .eh_frame      0x00000000004a06e8       0x18 /usr/lib/gcc/x86_64-linux-gnu/10/../../../x86_64-linux-gnu/libc.a(memcmp-ssse3.o)
                                         0x30 (size before relaxing)
 .eh_frame      0x00000000004a0700       0x18 /usr/lib/gcc/x86_64-linux-gnu/10/../../../x86_64-linux-gnu/libc.a(strstr-sse2-unaligned.o)
                                         0x30 (size before relaxing)
 .eh_frame      0x00000000004a0718       0x20 /usr/lib/gcc/x86_64-linux-gnu/10/../../../x86_64-linux-gnu/libc.a(strcspn-sse2.o)
                                         0x38 (size before relaxing)
 .eh_frame      0x00000000004a0738       0x18 /usr/lib/gcc/x86_64-linux-gnu/10/../../../x86_64-linux-gnu/libc.a(strcspn-c.o)
                                         0x30 (size before relaxing)
 .eh_frame      0x00000000004a0750       0x28 /usr/lib/gcc/x86_64-linux-gnu/10/../../../x86_64-linux-gnu/libc.a(memset-avx512-no-vzeroupper.o)
                                         0x40 (size before relaxing)
 .eh_frame      0x00000000004a0778       0xa0 /usr/lib/gcc/x86_64-linux-gnu/10/../../../x86_64-linux-gnu/libc.a(memmove-sse2-unaligned-erms.o)
                                         0xb8 (size before relaxing)
 .eh_frame      0x00000000004a0818       0x50 /usr/lib/gcc/x86_64-linux-gnu/10/../../../x86_64-linux-gnu/libc.a(memmove-avx-unaligned-erms.o)
                                         0x68 (size before relaxing)
 .eh_frame      0x00000000004a0868       0x50 /usr/lib/gcc/x86_64-linux-gnu/10/../../../x86_64-linux-gnu/libc.a(memmove-avx512-unaligned-erms.o)
                                         0x68 (size before relaxing)
 .eh_frame      0x00000000004a08b8       0x78 /usr/lib/gcc/x86_64-linux-gnu/10/../../../x86_64-linux-gnu/libc.a(memset-sse2-unaligned-erms.o)
                                         0x90 (size before relaxing)
 .eh_frame      0x00000000004a0930       0x50 /usr/lib/gcc/x86_64-linux-gnu/10/../../../x86_64-linux-gnu/libc.a(memset-avx2-unaligned-erms.o)
                                         0x68 (size before relaxing)
 .eh_frame      0x00000000004a0980       0x50 /usr/lib/gcc/x86_64-linux-gnu/10/../../../x86_64-linux-gnu/libc.a(memset-avx512-unaligned-erms.o)
                                         0x68 (size before relaxing)
 .eh_frame      0x00000000004a09d0      0x168 /usr/lib/gcc/x86_64-linux-gnu/10/../../../x86_64-linux-gnu/libc.a(cacheinfo.o)
                                        0x180 (size before relaxing)
 .eh_frame      0x00000000004a0b38       0x18 /usr/lib/gcc/x86_64-linux-gnu/10/../../../x86_64-linux-gnu/libc.a(strcasecmp_l-nonascii.o)
                                         0x30 (size before relaxing)
 .eh_frame      0x00000000004a0b50       0x18 /usr/lib/gcc/x86_64-linux-gnu/10/../../../x86_64-linux-gnu/libc.a(wmempcpy.o)
                                         0x30 (size before relaxing)
 .eh_frame      0x00000000004a0b68       0x58 /usr/lib/gcc/x86_64-linux-gnu/10/../../../x86_64-linux-gnu/libc.a(wcrtomb.o)
                                         0x70 (size before relaxing)
 .eh_frame      0x00000000004a0bc0       0x18 /usr/lib/gcc/x86_64-linux-gnu/10/../../../x86_64-linux-gnu/libc.a(mbsrtowcs.o)
                                         0x30 (size before relaxing)
 .eh_frame      0x00000000004a0bd8       0x70 /usr/lib/gcc/x86_64-linux-gnu/10/../../../x86_64-linux-gnu/libc.a(wcsrtombs.o)
                                         0x88 (size before relaxing)
 .eh_frame      0x00000000004a0c48       0x18 /usr/lib/gcc/x86_64-linux-gnu/10/../../../x86_64-linux-gnu/libc.a(wcsnlen.o)
                                         0x30 (size before relaxing)
 .eh_frame      0x00000000004a0c60       0xe0 /usr/lib/gcc/x86_64-linux-gnu/10/../../../x86_64-linux-gnu/libc.a(wcsmbsload.o)
                                         0xf8 (size before relaxing)
 .eh_frame      0x00000000004a0d40       0x70 /usr/lib/gcc/x86_64-linux-gnu/10/../../../x86_64-linux-gnu/libc.a(mbsrtowcs_l.o)
                                         0x88 (size before relaxing)
 .eh_frame      0x00000000004a0db0       0x18 /usr/lib/gcc/x86_64-linux-gnu/10/../../../x86_64-linux-gnu/libc.a(wcsnlen-sse4_1.o)
                                         0x30 (size before relaxing)
 .eh_frame      0x00000000004a0dc8       0x28 /usr/lib/gcc/x86_64-linux-gnu/10/../../../x86_64-linux-gnu/libc.a(wcsnlen-c.o)
                                         0x40 (size before relaxing)
 .eh_frame      0x00000000004a0df0       0x18 /usr/lib/gcc/x86_64-linux-gnu/10/../../../x86_64-linux-gnu/libc.a(wcsnlen-avx2.o)
                                         0x30 (size before relaxing)
 .eh_frame      0x00000000004a0e08       0x18 /usr/lib/gcc/x86_64-linux-gnu/10/../../../x86_64-linux-gnu/libc.a(_exit.o)
                                         0x30 (size before relaxing)
 .eh_frame      0x00000000004a0e20       0xd0 /usr/lib/gcc/x86_64-linux-gnu/10/../../../x86_64-linux-gnu/libc.a(sysconf.o)
                                         0xe8 (size before relaxing)
 .eh_frame      0x00000000004a0ef0       0x18 /usr/lib/gcc/x86_64-linux-gnu/10/../../../x86_64-linux-gnu/libc.a(sched_yield.o)
                                         0x30 (size before relaxing)
 .eh_frame      0x00000000004a0f08       0x20 /usr/lib/gcc/x86_64-linux-gnu/10/../../../x86_64-linux-gnu/libc.a(get_child_max.o)
                                         0x38 (size before relaxing)
 .eh_frame      0x00000000004a0f28       0x18 /usr/lib/gcc/x86_64-linux-gnu/10/../../../x86_64-linux-gnu/libc.a(xstat.o)
                                         0x30 (size before relaxing)
 .eh_frame      0x00000000004a0f40       0x18 /usr/lib/gcc/x86_64-linux-gnu/10/../../../x86_64-linux-gnu/libc.a(fxstat.o)
                                         0x30 (size before relaxing)
 .eh_frame      0x00000000004a0f58       0x30 /usr/lib/gcc/x86_64-linux-gnu/10/../../../x86_64-linux-gnu/libc.a(open64.o)
                                         0x48 (size before relaxing)
 .eh_frame      0x00000000004a0f88       0x20 /usr/lib/gcc/x86_64-linux-gnu/10/../../../x86_64-linux-gnu/libc.a(read.o)
                                         0x38 (size before relaxing)
 .eh_frame      0x00000000004a0fa8       0x20 /usr/lib/gcc/x86_64-linux-gnu/10/../../../x86_64-linux-gnu/libc.a(write.o)
                                         0x38 (size before relaxing)
 .eh_frame      0x00000000004a0fc8       0x18 /usr/lib/gcc/x86_64-linux-gnu/10/../../../x86_64-linux-gnu/libc.a(lseek64.o)
                                         0x30 (size before relaxing)
 .eh_frame      0x00000000004a0fe0       0x50 /usr/lib/gcc/x86_64-linux-gnu/10/../../../x86_64-linux-gnu/libc.a(getcwd.o)
                                         0x68 (size before relaxing)
 .eh_frame      0x00000000004a1030       0x18 /usr/lib/gcc/x86_64-linux-gnu/10/../../../x86_64-linux-gnu/libc.a(close_nocancel.o)
                                         0x30 (size before relaxing)
 .eh_frame      0x00000000004a1048       0x38 /usr/lib/gcc/x86_64-linux-gnu/10/../../../x86_64-linux-gnu/libc.a(fcntl_nocancel.o)
                                         0x50 (size before relaxing)
 .eh_frame      0x00000000004a1080       0x20 /usr/lib/gcc/x86_64-linux-gnu/10/../../../x86_64-linux-gnu/libc.a(open64_nocancel.o)
                                         0x38 (size before relaxing)
 .eh_frame      0x00000000004a10a0       0x20 /usr/lib/gcc/x86_64-linux-gnu/10/../../../x86_64-linux-gnu/libc.a(openat64_nocancel.o)
                                         0x38 (size before relaxing)
 .eh_frame      0x00000000004a10c0       0x18 /usr/lib/gcc/x86_64-linux-gnu/10/../../../x86_64-linux-gnu/libc.a(read_nocancel.o)
                                         0x30 (size before relaxing)
 .eh_frame      0x00000000004a10d8       0x18 /usr/lib/gcc/x86_64-linux-gnu/10/../../../x86_64-linux-gnu/libc.a(write_nocancel.o)
                                         0x30 (size before relaxing)
 .eh_frame      0x00000000004a10f0       0x18 /usr/lib/gcc/x86_64-linux-gnu/10/../../../x86_64-linux-gnu/libc.a(getrlimit64.o)
                                         0x30 (size before relaxing)
 .eh_frame      0x00000000004a1108       0x38 /usr/lib/gcc/x86_64-linux-gnu/10/../../../x86_64-linux-gnu/libc.a(sbrk.o)
                                         0x50 (size before relaxing)
 .eh_frame      0x00000000004a1140       0x18 /usr/lib/gcc/x86_64-linux-gnu/10/../../../x86_64-linux-gnu/libc.a(getpagesize.o)
                                         0x30 (size before relaxing)
 .eh_frame      0x00000000004a1158       0x20 /usr/lib/gcc/x86_64-linux-gnu/10/../../../x86_64-linux-gnu/libc.a(getdtsz.o)
                                         0x38 (size before relaxing)
 .eh_frame      0x00000000004a1178       0x30 /usr/lib/gcc/x86_64-linux-gnu/10/../../../x86_64-linux-gnu/libc.a(mmap64.o)
                                         0x48 (size before relaxing)
 .eh_frame      0x00000000004a11a8       0x18 /usr/lib/gcc/x86_64-linux-gnu/10/../../../x86_64-linux-gnu/libc.a(munmap.o)
                                         0x30 (size before relaxing)
 .eh_frame      0x00000000004a11c0       0x18 /usr/lib/gcc/x86_64-linux-gnu/10/../../../x86_64-linux-gnu/libc.a(mprotect.o)
                                         0x30 (size before relaxing)
 .eh_frame      0x00000000004a11d8       0x18 /usr/lib/gcc/x86_64-linux-gnu/10/../../../x86_64-linux-gnu/libc.a(madvise.o)
                                         0x30 (size before relaxing)
 .eh_frame      0x00000000004a11f0      0x1b8 /usr/lib/gcc/x86_64-linux-gnu/10/../../../x86_64-linux-gnu/libc.a(tsearch.o)
                                        0x1d0 (size before relaxing)
 .eh_frame      0x00000000004a13a8      0x128 /usr/lib/gcc/x86_64-linux-gnu/10/../../../x86_64-linux-gnu/libc.a(getsysstats.o)
                                        0x140 (size before relaxing)
 .eh_frame      0x00000000004a14d0       0x18 /usr/lib/gcc/x86_64-linux-gnu/10/../../../x86_64-linux-gnu/libc.a(getclktck.o)
                                         0x30 (size before relaxing)
 .eh_frame      0x00000000004a14e8       0x30 /usr/lib/gcc/x86_64-linux-gnu/10/../../../x86_64-linux-gnu/libc.a(init-misc.o)
                                         0x48 (size before relaxing)
 .eh_frame      0x00000000004a1518       0x18 /usr/lib/gcc/x86_64-linux-gnu/10/../../../x86_64-linux-gnu/libc.a(mremap.o)
                                         0x30 (size before relaxing)
 .eh_frame      0x00000000004a1530       0x18 /usr/lib/gcc/x86_64-linux-gnu/10/../../../x86_64-linux-gnu/libc.a(sysinfo.o)
                                         0x30 (size before relaxing)
 .eh_frame      0x00000000004a1548       0x50 /usr/lib/gcc/x86_64-linux-gnu/10/../../../x86_64-linux-gnu/libc.a(wctrans.o)
                                         0x68 (size before relaxing)
 .eh_frame      0x00000000004a1598       0x18 /usr/lib/gcc/x86_64-linux-gnu/10/../../../x86_64-linux-gnu/libc.a(towctrans.o)
                                         0x30 (size before relaxing)
 .eh_frame      0x00000000004a15b0       0x18 /usr/lib/gcc/x86_64-linux-gnu/10/../../../x86_64-linux-gnu/libc.a(chk_fail.o)
                                         0x30 (size before relaxing)
 .eh_frame      0x00000000004a15c8       0x50 /usr/lib/gcc/x86_64-linux-gnu/10/../../../x86_64-linux-gnu/libc.a(readonly-area.o)
                                         0x68 (size before relaxing)
 .eh_frame      0x00000000004a1618       0x18 /usr/lib/gcc/x86_64-linux-gnu/10/../../../x86_64-linux-gnu/libc.a(stack_chk_fail.o)
                                         0x30 (size before relaxing)
 .eh_frame      0x00000000004a1630       0x20 /usr/lib/gcc/x86_64-linux-gnu/10/../../../x86_64-linux-gnu/libc.a(fortify_fail.o)
                                         0x38 (size before relaxing)
 .eh_frame      0x00000000004a1650       0x28 /usr/lib/gcc/x86_64-linux-gnu/10/../../../x86_64-linux-gnu/libc.a(dl-debug.o)
                                         0x40 (size before relaxing)
 .eh_frame      0x00000000004a1678      0x1f0 /usr/lib/gcc/x86_64-linux-gnu/10/../../../x86_64-linux-gnu/libc.a(dl-tls.o)
                                        0x208 (size before relaxing)
 .eh_frame      0x00000000004a1868       0x88 /usr/lib/gcc/x86_64-linux-gnu/10/../../../x86_64-linux-gnu/libc.a(dl-tunables.o)
                                         0xa0 (size before relaxing)
 .eh_frame      0x00000000004a18f0      0x120 /usr/lib/gcc/x86_64-linux-gnu/10/../../../x86_64-linux-gnu/libc.a(dl-support.o)
                                        0x138 (size before relaxing)
 .eh_frame      0x00000000004a1a10       0x20 /usr/lib/gcc/x86_64-linux-gnu/10/../../../x86_64-linux-gnu/libc.a(enbl-secure.o)
                                         0x38 (size before relaxing)
 .eh_frame      0x00000000004a1a30       0x28 /usr/lib/gcc/x86_64-linux-gnu/10/../../../x86_64-linux-gnu/libc.a(dl-profstub.o)
                                         0x40 (size before relaxing)
 .eh_frame      0x00000000004a1a58       0x80 /usr/lib/gcc/x86_64-linux-gnu/10/../../../x86_64-linux-gnu/libc.a(dl-sysdep.o)
                                         0x98 (size before relaxing)
 .eh_frame      0x00000000004a1ad8       0xc0 /usr/lib/gcc/x86_64-linux-gnu/10/../../../x86_64-linux-gnu/libc.a(dl-error.o)
                                         0xd8 (size before relaxing)
 .eh_frame      0x00000000004a1b98       0x40 /usr/lib/gcc/x86_64-linux-gnu/10/../../../x86_64-linux-gnu/libc.a(init-first.o)
                                         0x58 (size before relaxing)
 .eh_frame      0x00000000004a1bd8       0x30 /usr/lib/gcc/x86_64-linux-gnu/10/../../../x86_64-linux-gnu/libc.a(gconv_open.o)
                                         0x48 (size before relaxing)
 .eh_frame      0x00000000004a1c08       0x98 /usr/lib/gcc/x86_64-linux-gnu/10/../../../x86_64-linux-gnu/libc.a(gconv.o)
                                         0xb0 (size before relaxing)
 .eh_frame      0x00000000004a1ca0       0x38 /usr/lib/gcc/x86_64-linux-gnu/10/../../../x86_64-linux-gnu/libc.a(gconv_close.o)
                                         0x50 (size before relaxing)
 .eh_frame      0x00000000004a1cd8      0x208 /usr/lib/gcc/x86_64-linux-gnu/10/../../../x86_64-linux-gnu/libc.a(gconv_db.o)
                                        0x220 (size before relaxing)
 .eh_frame      0x00000000004a1ee0      0x168 /usr/lib/gcc/x86_64-linux-gnu/10/../../../x86_64-linux-gnu/libc.a(gconv_conf.o)
                                        0x180 (size before relaxing)
 .eh_frame      0x00000000004a2048       0x38 /usr/lib/gcc/x86_64-linux-gnu/10/../../../x86_64-linux-gnu/libc.a(gconv_builtin.o)
                                         0x50 (size before relaxing)
 .eh_frame      0x00000000004a2080      0x698 /usr/lib/gcc/x86_64-linux-gnu/10/../../../x86_64-linux-gnu/libc.a(gconv_simple.o)
                                        0x6b0 (size before relaxing)
 .eh_frame      0x00000000004a2718       0x70 /usr/lib/gcc/x86_64-linux-gnu/10/../../../x86_64-linux-gnu/libc.a(gconv_trans.o)
                                         0x88 (size before relaxing)
 .eh_frame      0x00000000004a2788      0x180 /usr/lib/gcc/x86_64-linux-gnu/10/../../../x86_64-linux-gnu/libc.a(gconv_cache.o)
                                        0x198 (size before relaxing)
 .eh_frame      0x00000000004a2908       0xd8 /usr/lib/gcc/x86_64-linux-gnu/10/../../../x86_64-linux-gnu/libc.a(gconv_dl.o)
                                         0xf0 (size before relaxing)
 .eh_frame      0x00000000004a29e0       0x90 /usr/lib/gcc/x86_64-linux-gnu/10/../../../x86_64-linux-gnu/libc.a(gconv_charset.o)
                                         0xa8 (size before relaxing)
 .eh_frame      0x00000000004a2a70      0x108 /usr/lib/gcc/x86_64-linux-gnu/10/../../../x86_64-linux-gnu/libc.a(setlocale.o)
                                        0x120 (size before relaxing)
 .eh_frame      0x00000000004a2b78       0x48 /usr/lib/gcc/x86_64-linux-gnu/10/../../../x86_64-linux-gnu/libc.a(findlocale.o)
                                         0x60 (size before relaxing)
 .eh_frame      0x00000000004a2bc0       0x98 /usr/lib/gcc/x86_64-linux-gnu/10/../../../x86_64-linux-gnu/libc.a(loadlocale.o)
                                         0xb0 (size before relaxing)
 .eh_frame      0x00000000004a2c58       0x60 /usr/lib/gcc/x86_64-linux-gnu/10/../../../x86_64-linux-gnu/libc.a(loadarchive.o)
                                         0x78 (size before relaxing)
 .eh_frame      0x00000000004a2cb8       0x18 /usr/lib/gcc/x86_64-linux-gnu/10/../../../x86_64-linux-gnu/libc.a(lc-ctype.o)
                                         0x30 (size before relaxing)
 .eh_frame      0x00000000004a2cd0       0x18 /usr/lib/gcc/x86_64-linux-gnu/10/../../../x86_64-linux-gnu/libc.a(localename.o)
                                         0x30 (size before relaxing)
 .eh_frame      0x00000000004a2ce8       0x50 /usr/lib/gcc/x86_64-linux-gnu/10/../../../x86_64-linux-gnu/libc.a(ctype-info.o)
                                         0x68 (size before relaxing)
 .eh_frame      0x00000000004a2d38       0x20 /usr/lib/gcc/x86_64-linux-gnu/10/../../../x86_64-linux-gnu/libc.a(setfpucw.o)
                                         0x38 (size before relaxing)
 .eh_frame      0x00000000004a2d58       0x18 /usr/lib/gcc/x86_64-linux-gnu/10/../../../x86_64-linux-gnu/libc.a(setjmp.o)
                                         0x30 (size before relaxing)
 .eh_frame      0x00000000004a2d70       0x20 /usr/lib/gcc/x86_64-linux-gnu/10/../../../x86_64-linux-gnu/libc.a(sigjmp.o)
                                         0x38 (size before relaxing)
 .eh_frame      0x00000000004a2d90       0x30 /usr/lib/gcc/x86_64-linux-gnu/10/../../../x86_64-linux-gnu/libc.a(__longjmp.o)
                                         0x48 (size before relaxing)
 .eh_frame      0x00000000004a2dc0       0xc8 /usr/lib/gcc/x86_64-linux-gnu/10/../../../x86_64-linux-gnu/libc.a(sigaction.o)
                                         0xe8 (size before relaxing)
 .eh_frame      0x00000000004a2e88       0x20 /usr/lib/gcc/x86_64-linux-gnu/10/../../../x86_64-linux-gnu/libc.a(sigprocmask.o)
                                         0x38 (size before relaxing)
 .eh_frame      0x00000000004a2ea8       0x50 /usr/lib/gcc/x86_64-linux-gnu/10/../../../x86_64-linux-gnu/libc.a(qsort.o)
                                         0x68 (size before relaxing)
 .eh_frame      0x00000000004a2ef8       0xd8 /usr/lib/gcc/x86_64-linux-gnu/10/../../../x86_64-linux-gnu/libc.a(setenv.o)
                                         0xf0 (size before relaxing)
 .eh_frame      0x00000000004a2fd0       0x18 /usr/lib/gcc/x86_64-linux-gnu/10/../../../x86_64-linux-gnu/libc.a(secure-getenv.o)
                                         0x30 (size before relaxing)
 .eh_frame      0x00000000004a2fe8       0x28 /usr/lib/gcc/x86_64-linux-gnu/10/../../../x86_64-linux-gnu/libc.a(strtol.o)
                                         0x40 (size before relaxing)
 .eh_frame      0x00000000004a3010       0x98 /usr/lib/gcc/x86_64-linux-gnu/10/../../../x86_64-linux-gnu/libc.a(strtol_l.o)
                                         0xb0 (size before relaxing)
 .eh_frame      0x00000000004a30a8       0x30 /usr/lib/gcc/x86_64-linux-gnu/10/../../../x86_64-linux-gnu/libc.a(_itoa.o)
                                         0x48 (size before relaxing)
 .eh_frame      0x00000000004a30d8      0x138 /usr/lib/gcc/x86_64-linux-gnu/10/../../../x86_64-linux-gnu/libc.a(printf_fp.o)
                                        0x150 (size before relaxing)
 .eh_frame      0x00000000004a3210       0x48 /usr/lib/gcc/x86_64-linux-gnu/10/../../../x86_64-linux-gnu/libc.a(reg-printf.o)
                                         0x60 (size before relaxing)
 .eh_frame      0x00000000004a3258       0x90 /usr/lib/gcc/x86_64-linux-gnu/10/../../../x86_64-linux-gnu/libc.a(printf_fphex.o)
                                         0xa8 (size before relaxing)
 .eh_frame      0x00000000004a32e8       0xf0 /usr/lib/gcc/x86_64-linux-gnu/10/../../../x86_64-linux-gnu/libc.a(reg-modifier.o)
                                        0x108 (size before relaxing)
 .eh_frame      0x00000000004a33d8       0x20 /usr/lib/gcc/x86_64-linux-gnu/10/../../../x86_64-linux-gnu/libc.a(reg-type.o)
                                         0x38 (size before relaxing)
 .eh_frame      0x00000000004a33f8       0x18 /usr/lib/gcc/x86_64-linux-gnu/10/../../../x86_64-linux-gnu/libc.a(funlockfile.o)
                                         0x30 (size before relaxing)
 .eh_frame      0x00000000004a3410      0x1a8 /usr/lib/gcc/x86_64-linux-gnu/10/../../../x86_64-linux-gnu/libc.a(vfwprintf-internal.o)
                                        0x1c0 (size before relaxing)
 .eh_frame      0x00000000004a35b8       0x60 /usr/lib/gcc/x86_64-linux-gnu/10/../../../x86_64-linux-gnu/libc.a(printf-parsewc.o)
                                         0x78 (size before relaxing)
 .eh_frame      0x00000000004a3618       0x38 /usr/lib/gcc/x86_64-linux-gnu/10/../../../x86_64-linux-gnu/libc.a(filedoalloc.o)
                                         0x50 (size before relaxing)
 .eh_frame      0x00000000004a3650       0x70 /usr/lib/gcc/x86_64-linux-gnu/10/../../../x86_64-linux-gnu/libc.a(iofputs.o)
                                         0xb8 (size before relaxing)
 .eh_frame      0x00000000004a36c0       0x38 /usr/lib/gcc/x86_64-linux-gnu/10/../../../x86_64-linux-gnu/libc.a(wfiledoalloc.o)
                                         0x50 (size before relaxing)
 .eh_frame      0x00000000004a36f8       0x98 /usr/lib/gcc/x86_64-linux-gnu/10/../../../x86_64-linux-gnu/libc.a(iofwrite.o)
                                         0xb8 (size before relaxing)
 .eh_frame      0x00000000004a3790       0x98 /usr/lib/gcc/x86_64-linux-gnu/10/../../../x86_64-linux-gnu/libc.a(iogetdelim.o)
                                         0xb8 (size before relaxing)
 .eh_frame      0x00000000004a3828       0x78 /usr/lib/gcc/x86_64-linux-gnu/10/../../../x86_64-linux-gnu/libc.a(iogetline.o)
                                         0x90 (size before relaxing)
 .eh_frame      0x00000000004a38a0       0x50 /usr/lib/gcc/x86_64-linux-gnu/10/../../../x86_64-linux-gnu/libc.a(iowpadn.o)
                                         0x68 (size before relaxing)
 .eh_frame      0x00000000004a38f0      0x450 /usr/lib/gcc/x86_64-linux-gnu/10/../../../x86_64-linux-gnu/libc.a(wgenops.o)
                                        0x468 (size before relaxing)
 .eh_frame      0x00000000004a3d40       0x28 /usr/lib/gcc/x86_64-linux-gnu/10/../../../x86_64-linux-gnu/libc.a(libc-cancellation.o)
                                         0x40 (size before relaxing)
 .eh_frame      0x00000000004a3d68       0x38 /usr/lib/gcc/x86_64-linux-gnu/10/../../../x86_64-linux-gnu/libc.a(strndup.o)
                                         0x50 (size before relaxing)
 .eh_frame      0x00000000004a3da0       0x18 /usr/lib/gcc/x86_64-linux-gnu/10/../../../x86_64-linux-gnu/libc.a(strrchr.o)
                                         0x30 (size before relaxing)
 .eh_frame      0x00000000004a3db8       0x40 /usr/lib/gcc/x86_64-linux-gnu/10/../../../x86_64-linux-gnu/libc.a(strtok_r.o)
                                         0x58 (size before relaxing)
 .eh_frame      0x00000000004a3df8       0x18 /usr/lib/gcc/x86_64-linux-gnu/10/../../../x86_64-linux-gnu/libc.a(memchr.o)
                                         0x30 (size before relaxing)
 .eh_frame      0x00000000004a3e10       0xd0 /usr/lib/gcc/x86_64-linux-gnu/10/../../../x86_64-linux-gnu/libc.a(memmem.o)
                                         0xe8 (size before relaxing)
 .eh_frame      0x00000000004a3ee0       0x50 /usr/lib/gcc/x86_64-linux-gnu/10/../../../x86_64-linux-gnu/libc.a(argz-ctsep.o)
                                         0x68 (size before relaxing)
 .eh_frame      0x00000000004a3f30       0x50 /usr/lib/gcc/x86_64-linux-gnu/10/../../../x86_64-linux-gnu/libc.a(argz-addsep.o)
                                         0x68 (size before relaxing)
 .eh_frame      0x00000000004a3f80       0x18 /usr/lib/gcc/x86_64-linux-gnu/10/../../../x86_64-linux-gnu/libc.a(memchr-sse2.o)
                                         0x30 (size before relaxing)
 .eh_frame      0x00000000004a3f98       0x18 /usr/lib/gcc/x86_64-linux-gnu/10/../../../x86_64-linux-gnu/libc.a(memchr-avx2.o)
                                         0x30 (size before relaxing)
 .eh_frame      0x00000000004a3fb0       0x18 /usr/lib/gcc/x86_64-linux-gnu/10/../../../x86_64-linux-gnu/libc.a(strrchr-sse2.o)
                                         0x30 (size before relaxing)
 .eh_frame      0x00000000004a3fc8       0x18 /usr/lib/gcc/x86_64-linux-gnu/10/../../../x86_64-linux-gnu/libc.a(strrchr-avx2.o)
                                         0x30 (size before relaxing)
 .eh_frame      0x00000000004a3fe0       0x18 /usr/lib/gcc/x86_64-linux-gnu/10/../../../x86_64-linux-gnu/libc.a(wcslen.o)
                                         0x30 (size before relaxing)
 .eh_frame      0x00000000004a3ff8       0x18 /usr/lib/gcc/x86_64-linux-gnu/10/../../../x86_64-linux-gnu/libc.a(wmemchr.o)
                                         0x30 (size before relaxing)
 .eh_frame      0x00000000004a4010       0x18 /usr/lib/gcc/x86_64-linux-gnu/10/../../../x86_64-linux-gnu/libc.a(wmemcpy.o)
                                         0x30 (size before relaxing)
 .eh_frame      0x00000000004a4028       0x18 /usr/lib/gcc/x86_64-linux-gnu/10/../../../x86_64-linux-gnu/libc.a(wmemmove.o)
                                         0x30 (size before relaxing)
 .eh_frame      0x00000000004a4040       0x18 /usr/lib/gcc/x86_64-linux-gnu/10/../../../x86_64-linux-gnu/libc.a(wmemset.o)
                                         0x30 (size before relaxing)
 .eh_frame      0x00000000004a4058       0x60 /usr/lib/gcc/x86_64-linux-gnu/10/../../../x86_64-linux-gnu/libc.a(btowc.o)
                                         0x78 (size before relaxing)
 .eh_frame      0x00000000004a40b8       0x18 /usr/lib/gcc/x86_64-linux-gnu/10/../../../x86_64-linux-gnu/libc.a(wcschrnul.o)
                                         0x30 (size before relaxing)
 .eh_frame      0x00000000004a40d0       0x18 /usr/lib/gcc/x86_64-linux-gnu/10/../../../x86_64-linux-gnu/libc.a(wmemchr-sse2.o)
                                         0x30 (size before relaxing)
 .eh_frame      0x00000000004a40e8       0x18 /usr/lib/gcc/x86_64-linux-gnu/10/../../../x86_64-linux-gnu/libc.a(wmemchr-avx2.o)
                                         0x30 (size before relaxing)
 .eh_frame      0x00000000004a4100       0x18 /usr/lib/gcc/x86_64-linux-gnu/10/../../../x86_64-linux-gnu/libc.a(wcslen-sse2.o)
                                         0x30 (size before relaxing)
 .eh_frame      0x00000000004a4118       0x18 /usr/lib/gcc/x86_64-linux-gnu/10/../../../x86_64-linux-gnu/libc.a(wcslen-avx2.o)
                                         0x30 (size before relaxing)
 .eh_frame      0x00000000004a4130       0x38 /usr/lib/gcc/x86_64-linux-gnu/10/../../../x86_64-linux-gnu/libc.a(clock_gettime.o)
                                         0x50 (size before relaxing)
 .eh_frame      0x00000000004a4168       0x98 /usr/lib/gcc/x86_64-linux-gnu/10/../../../x86_64-linux-gnu/libc.a(opendir.o)
                                         0xb0 (size before relaxing)
 .eh_frame      0x00000000004a4200       0x20 /usr/lib/gcc/x86_64-linux-gnu/10/../../../x86_64-linux-gnu/libc.a(closedir.o)
                                         0x38 (size before relaxing)
 .eh_frame      0x00000000004a4220       0x30 /usr/lib/gcc/x86_64-linux-gnu/10/../../../x86_64-linux-gnu/libc.a(rewinddir.o)
                                         0x48 (size before relaxing)
 .eh_frame      0x00000000004a4250       0x40 /usr/lib/gcc/x86_64-linux-gnu/10/../../../x86_64-linux-gnu/libc.a(readdir64.o)
                                         0x58 (size before relaxing)
 .eh_frame      0x00000000004a4290       0x30 /usr/lib/gcc/x86_64-linux-gnu/10/../../../x86_64-linux-gnu/libc.a(fdopendir.o)
                                         0x48 (size before relaxing)
 .eh_frame      0x00000000004a42c0       0x18 /usr/lib/gcc/x86_64-linux-gnu/10/../../../x86_64-linux-gnu/libc.a(uname.o)
                                         0x30 (size before relaxing)
 .eh_frame      0x00000000004a42d8       0x18 /usr/lib/gcc/x86_64-linux-gnu/10/../../../x86_64-linux-gnu/libc.a(getuid.o)
                                         0x30 (size before relaxing)
 .eh_frame      0x00000000004a42f0       0x18 /usr/lib/gcc/x86_64-linux-gnu/10/../../../x86_64-linux-gnu/libc.a(geteuid.o)
                                         0x30 (size before relaxing)
 .eh_frame      0x00000000004a4308       0x18 /usr/lib/gcc/x86_64-linux-gnu/10/../../../x86_64-linux-gnu/libc.a(getgid.o)
                                         0x30 (size before relaxing)
 .eh_frame      0x00000000004a4320       0x18 /usr/lib/gcc/x86_64-linux-gnu/10/../../../x86_64-linux-gnu/libc.a(getegid.o)
                                         0x30 (size before relaxing)
 .eh_frame      0x00000000004a4338       0x18 /usr/lib/gcc/x86_64-linux-gnu/10/../../../x86_64-linux-gnu/libc.a(lxstat.o)
                                         0x30 (size before relaxing)
 .eh_frame      0x00000000004a4350       0x18 /usr/lib/gcc/x86_64-linux-gnu/10/../../../x86_64-linux-gnu/libc.a(fxstatat.o)
                                         0x30 (size before relaxing)
 .eh_frame      0x00000000004a4368       0x20 /usr/lib/gcc/x86_64-linux-gnu/10/../../../x86_64-linux-gnu/libc.a(isatty.o)
                                         0x38 (size before relaxing)
 .eh_frame      0x00000000004a4388       0x20 /usr/lib/gcc/x86_64-linux-gnu/10/../../../x86_64-linux-gnu/libc.a(tcgetattr.o)
                                         0x38 (size before relaxing)
 .eh_frame      0x00000000004a43a8       0x18 /usr/lib/gcc/x86_64-linux-gnu/10/../../../x86_64-linux-gnu/libc.a(brk.o)
                                         0x30 (size before relaxing)
 .eh_frame      0x00000000004a43c0      0x4e0 /usr/lib/gcc/x86_64-linux-gnu/10/../../../x86_64-linux-gnu/libc.a(dl-load.o)
                                        0x4f8 (size before relaxing)
 .eh_frame      0x00000000004a48a0      0x1a0 /usr/lib/gcc/x86_64-linux-gnu/10/../../../x86_64-linux-gnu/libc.a(dl-lookup.o)
                                        0x1b8 (size before relaxing)
 .eh_frame      0x00000000004a4a40       0x88 /usr/lib/gcc/x86_64-linux-gnu/10/../../../x86_64-linux-gnu/libc.a(dl-object.o)
                                         0xa0 (size before relaxing)
 .eh_frame      0x00000000004a4ac8       0xc8 /usr/lib/gcc/x86_64-linux-gnu/10/../../../x86_64-linux-gnu/libc.a(dl-reloc.o)
                                         0xe0 (size before relaxing)
 .eh_frame      0x00000000004a4b90       0x30 /usr/lib/gcc/x86_64-linux-gnu/10/../../../x86_64-linux-gnu/libc.a(dl-hwcaps.o)
                                         0x48 (size before relaxing)
 .eh_frame      0x00000000004a4bc0      0x128 /usr/lib/gcc/x86_64-linux-gnu/10/../../../x86_64-linux-gnu/libc.a(dl-misc.o)
                                        0x140 (size before relaxing)
 .eh_frame      0x00000000004a4ce8       0x78 /usr/lib/gcc/x86_64-linux-gnu/10/../../../x86_64-linux-gnu/libc.a(dl-profile.o)
                                         0x90 (size before relaxing)
 .eh_frame      0x00000000004a4d60       0x40 /usr/lib/gcc/x86_64-linux-gnu/10/../../../x86_64-linux-gnu/libc.a(dl-origin.o)
                                         0x58 (size before relaxing)
 .eh_frame      0x00000000004a4da0       0x30 /usr/lib/gcc/x86_64-linux-gnu/10/../../../x86_64-linux-gnu/libc.a(dl-scope.o)
                                         0x48 (size before relaxing)
 .eh_frame      0x00000000004a4dd0       0x20 /usr/lib/gcc/x86_64-linux-gnu/10/../../../x86_64-linux-gnu/libc.a(dl-execstack.o)
                                         0x38 (size before relaxing)
 .eh_frame      0x00000000004a4df0      0x120 /usr/lib/gcc/x86_64-linux-gnu/10/../../../x86_64-linux-gnu/libc.a(dl-trampoline.o)
 .eh_frame      0x00000000004a4f10       0xe8 /usr/lib/gcc/x86_64-linux-gnu/10/../../../x86_64-linux-gnu/libc.a(dl-exception.o)
                                        0x100 (size before relaxing)
 .eh_frame      0x00000000004a4ff8       0x68 /usr/lib/gcc/x86_64-linux-gnu/10/../../../x86_64-linux-gnu/libc.a(dl-cache.o)
                                         0x80 (size before relaxing)
 .eh_frame      0x00000000004a5060       0x60 /usr/lib/gcc/x86_64-linux-gnu/10/../../../x86_64-linux-gnu/libc.a(dl-tlsdesc.o)
                                         0x78 (size before relaxing)
 .eh_frame      0x00000000004a50c0      0x1e8 /usr/lib/gcc/x86_64-linux-gnu/10/../../../x86_64-linux-gnu/libc.a(dl-libc.o)
                                        0x200 (size before relaxing)
 .eh_frame      0x00000000004a52a8       0x18 /usr/lib/gcc/x86_64-linux-gnu/10/../../../x86_64-linux-gnu/libc.a(cmp.o)
                                         0x30 (size before relaxing)
 .eh_frame      0x00000000004a52c0       0x50 /usr/lib/gcc/x86_64-linux-gnu/10/../../../x86_64-linux-gnu/libc.a(divrem.o)
                                         0x68 (size before relaxing)
 .eh_frame      0x00000000004a5310       0x18 /usr/lib/gcc/x86_64-linux-gnu/10/../../../x86_64-linux-gnu/libc.a(lshift.o)
                                         0x30 (size before relaxing)
 .eh_frame      0x00000000004a5328       0x18 /usr/lib/gcc/x86_64-linux-gnu/10/../../../x86_64-linux-gnu/libc.a(rshift.o)
                                         0x30 (size before relaxing)
 .eh_frame      0x00000000004a5340       0x30 /usr/lib/gcc/x86_64-linux-gnu/10/../../../x86_64-linux-gnu/libc.a(mul.o)
                                         0x48 (size before relaxing)
 .eh_frame      0x00000000004a5370       0x20 /usr/lib/gcc/x86_64-linux-gnu/10/../../../x86_64-linux-gnu/libc.a(mul_1.o)
                                         0x38 (size before relaxing)
 .eh_frame      0x00000000004a5390      0x148 /usr/lib/gcc/x86_64-linux-gnu/10/../../../x86_64-linux-gnu/libc.a(mul_n.o)
                                        0x160 (size before relaxing)
 .eh_frame      0x00000000004a54d8       0x18 /usr/lib/gcc/x86_64-linux-gnu/10/../../../x86_64-linux-gnu/libc.a(sub_n.o)
                                         0x30 (size before relaxing)
 .eh_frame      0x00000000004a54f0       0x18 /usr/lib/gcc/x86_64-linux-gnu/10/../../../x86_64-linux-gnu/libc.a(submul_1.o)
                                         0x30 (size before relaxing)
 .eh_frame      0x00000000004a5508       0x18 /usr/lib/gcc/x86_64-linux-gnu/10/../../../x86_64-linux-gnu/libc.a(dbl2mpn.o)
                                         0x30 (size before relaxing)
 .eh_frame      0x00000000004a5520       0x18 /usr/lib/gcc/x86_64-linux-gnu/10/../../../x86_64-linux-gnu/libc.a(ldbl2mpn.o)
                                         0x30 (size before relaxing)
 .eh_frame      0x00000000004a5538       0x18 /usr/lib/gcc/x86_64-linux-gnu/10/../../../x86_64-linux-gnu/libc.a(float1282mpn.o)
                                         0x30 (size before relaxing)
 .eh_frame      0x00000000004a5550       0xc8 /usr/lib/gcc/x86_64-linux-gnu/10/../../../x86_64-linux-gnu/libc.a(sdlerror.o)
                                         0xe0 (size before relaxing)
 .eh_frame      0x00000000004a5618       0x18 /usr/lib/gcc/x86_64-linux-gnu/10/../../../x86_64-linux-gnu/libc.a(sdladdr.o)
                                         0x30 (size before relaxing)
 .eh_frame      0x00000000004a5630       0x18 /usr/lib/gcc/x86_64-linux-gnu/10/../../../x86_64-linux-gnu/libc.a(sdladdr1.o)
                                         0x30 (size before relaxing)
 .eh_frame      0x00000000004a5648       0x60 /usr/lib/gcc/x86_64-linux-gnu/10/../../../x86_64-linux-gnu/libc.a(sdlinfo.o)
                                         0x78 (size before relaxing)
 .eh_frame      0x00000000004a56a8       0x48 /usr/lib/gcc/x86_64-linux-gnu/10/../../../x86_64-linux-gnu/libc.a(sdlmopen.o)
                                         0x60 (size before relaxing)
 .eh_frame      0x00000000004a56f0       0x48 /usr/lib/gcc/x86_64-linux-gnu/10/../../../x86_64-linux-gnu/libc.a(strerror.o)
                                         0x60 (size before relaxing)
 .eh_frame      0x00000000004a5738       0x18 /usr/lib/gcc/x86_64-linux-gnu/10/../../../x86_64-linux-gnu/libc.a(strspn.o)
                                         0x30 (size before relaxing)
 .eh_frame      0x00000000004a5750       0x38 /usr/lib/gcc/x86_64-linux-gnu/10/../../../x86_64-linux-gnu/libc.a(strsep.o)
                                         0x50 (size before relaxing)
 .eh_frame      0x00000000004a5788       0x20 /usr/lib/gcc/x86_64-linux-gnu/10/../../../x86_64-linux-gnu/libc.a(strspn-sse2.o)
                                         0x38 (size before relaxing)
 .eh_frame      0x00000000004a57a8       0x18 /usr/lib/gcc/x86_64-linux-gnu/10/../../../x86_64-linux-gnu/libc.a(strspn-c.o)
                                         0x30 (size before relaxing)
 .eh_frame      0x00000000004a57c0       0x18 /usr/lib/gcc/x86_64-linux-gnu/10/../../../x86_64-linux-gnu/libc.a(getdents64.o)
                                         0x30 (size before relaxing)
 .eh_frame      0x00000000004a57d8       0x18 /usr/lib/gcc/x86_64-linux-gnu/10/../../../x86_64-linux-gnu/libc.a(getpid.o)
                                         0x30 (size before relaxing)
 .eh_frame      0x00000000004a57f0       0x18 /usr/lib/gcc/x86_64-linux-gnu/10/../../../x86_64-linux-gnu/libc.a(pread64_nocancel.o)
                                         0x30 (size before relaxing)
 .eh_frame      0x00000000004a5808       0x68 /usr/lib/gcc/x86_64-linux-gnu/10/../../../x86_64-linux-gnu/libc.a(profil.o)
                                         0x80 (size before relaxing)
 .eh_frame      0x00000000004a5870       0x18 /usr/lib/gcc/x86_64-linux-gnu/10/../../../x86_64-linux-gnu/libc.a(prof-freq.o)
                                         0x30 (size before relaxing)
 .eh_frame      0x00000000004a5888       0xa0 /usr/lib/gcc/x86_64-linux-gnu/10/../../../x86_64-linux-gnu/libc.a(dl-runtime.o)
                                         0xb8 (size before relaxing)
 .eh_frame      0x00000000004a5928      0x1d0 /usr/lib/gcc/x86_64-linux-gnu/10/../../../x86_64-linux-gnu/libc.a(dl-open.o)
                                        0x1e8 (size before relaxing)
 .eh_frame      0x00000000004a5af8       0xc8 /usr/lib/gcc/x86_64-linux-gnu/10/../../../x86_64-linux-gnu/libc.a(dl-close.o)
                                         0xe0 (size before relaxing)
 .eh_frame      0x00000000004a5bc0       0x30 /usr/lib/gcc/x86_64-linux-gnu/10/../../../x86_64-linux-gnu/libc.a(dl-sort-maps.o)
                                         0x48 (size before relaxing)
 .eh_frame      0x00000000004a5bf0       0x90 /usr/lib/gcc/x86_64-linux-gnu/10/../../../x86_64-linux-gnu/libc.a(tlsdesc.o)
                                         0xa8 (size before relaxing)
 .eh_frame      0x00000000004a5c80       0x50 /usr/lib/gcc/x86_64-linux-gnu/10/../../../x86_64-linux-gnu/libc.a(dl-addr.o)
                                         0x68 (size before relaxing)
 .eh_frame      0x00000000004a5cd0       0x18 /usr/lib/gcc/x86_64-linux-gnu/10/../../../x86_64-linux-gnu/libc.a(dl-addr-obj.o)
                                         0x30 (size before relaxing)
 .eh_frame      0x00000000004a5ce8       0x18 /usr/lib/gcc/x86_64-linux-gnu/10/../../../x86_64-linux-gnu/libc.a(add_n.o)
                                         0x30 (size before relaxing)
 .eh_frame      0x00000000004a5d00       0x18 /usr/lib/gcc/x86_64-linux-gnu/10/../../../x86_64-linux-gnu/libc.a(addmul_1.o)
                                         0x30 (size before relaxing)
 .eh_frame      0x00000000004a5d18       0x48 /usr/lib/gcc/x86_64-linux-gnu/10/../../../x86_64-linux-gnu/libc.a(sdlopen.o)
                                         0x60 (size before relaxing)
 .eh_frame      0x00000000004a5d60       0x30 /usr/lib/gcc/x86_64-linux-gnu/10/../../../x86_64-linux-gnu/libc.a(sdlclose.o)
                                         0x48 (size before relaxing)
 .eh_frame      0x00000000004a5d90       0x40 /usr/lib/gcc/x86_64-linux-gnu/10/../../../x86_64-linux-gnu/libc.a(sdlsym.o)
                                         0x58 (size before relaxing)
 .eh_frame      0x00000000004a5dd0       0x40 /usr/lib/gcc/x86_64-linux-gnu/10/../../../x86_64-linux-gnu/libc.a(sdlvsym.o)
                                         0x58 (size before relaxing)
 .eh_frame      0x00000000004a5e10       0x18 /usr/lib/gcc/x86_64-linux-gnu/10/../../../x86_64-linux-gnu/libc.a(setitimer.o)
                                         0x30 (size before relaxing)
 .eh_frame      0x00000000004a5e28       0x80 /usr/lib/gcc/x86_64-linux-gnu/10/../../../x86_64-linux-gnu/libc.a(dl-deps.o)
                                         0x98 (size before relaxing)
 .eh_frame      0x00000000004a5ea8       0x90 /usr/lib/gcc/x86_64-linux-gnu/10/../../../x86_64-linux-gnu/libc.a(dl-init.o)
                                         0xa8 (size before relaxing)
 .eh_frame      0x00000000004a5f38       0xa0 /usr/lib/gcc/x86_64-linux-gnu/10/../../../x86_64-linux-gnu/libc.a(dl-version.o)
                                         0xb8 (size before relaxing)
 .eh_frame      0x00000000004a5fd8       0xb8 /usr/lib/gcc/x86_64-linux-gnu/10/../../../x86_64-linux-gnu/libc.a(dl-sym.o)
                                         0xd0 (size before relaxing)
 .eh_frame      0x00000000004a6090       0x28 /usr/lib/gcc/x86_64-linux-gnu/10/libgcc.a(unordtf2.o)
                                         0x40 (size before relaxing)
 .eh_frame      0x00000000004a60b8       0x48 /usr/lib/gcc/x86_64-linux-gnu/10/libgcc.a(letf2.o)
                                         0x60 (size before relaxing)
 .eh_frame      0x00000000004a6100       0x18 /usr/lib/gcc/x86_64-linux-gnu/10/libgcc.a(sfp-exceptions.o)
                                         0x30 (size before relaxing)
 .eh_frame      0x00000000004a6118      0x768 /usr/lib/gcc/x86_64-linux-gnu/10/libgcc_eh.a(unwind-dw2.o)
                                        0x7a8 (size before relaxing)
 .eh_frame      0x00000000004a6880      0x668 /usr/lib/gcc/x86_64-linux-gnu/10/libgcc_eh.a(unwind-dw2-fde-dip.o)
                                        0x6c0 (size before relaxing)
 .eh_frame      0x00000000004a6ee8      0x118 /usr/lib/gcc/x86_64-linux-gnu/10/libgcc_eh.a(unwind-c.o)
                                        0x148 (size before relaxing)
 .eh_frame      0x00000000004a7000       0x50 /usr/lib/gcc/x86_64-linux-gnu/10/../../../x86_64-linux-gnu/libc.a(dl-iteratephdr.o)
                                         0x68 (size before relaxing)
 .eh_frame      0x00000000004a7050        0x4 /usr/lib/gcc/x86_64-linux-gnu/10/crtend.o
 *(.eh_frame.*)

.gcc_except_table
                0x00000000004a7054       0xe1
 *(.gcc_except_table .gcc_except_table.*)
 .gcc_except_table
                0x00000000004a7054       0x21 /usr/lib/gcc/x86_64-linux-gnu/10/../../../x86_64-linux-gnu/libc.a(iofclose.o)
 .gcc_except_table
                0x00000000004a7075       0x1d /usr/lib/gcc/x86_64-linux-gnu/10/../../../x86_64-linux-gnu/libc.a(iofflush.o)
 .gcc_except_table
                0x00000000004a7092       0x13 /usr/lib/gcc/x86_64-linux-gnu/10/../../../x86_64-linux-gnu/libc.a(ioputs.o)
 .gcc_except_table
                0x00000000004a70a5       0x18 /usr/lib/gcc/x86_64-linux-gnu/10/../../../x86_64-linux-gnu/libc.a(wfileops.o)
 .gcc_except_table
                0x00000000004a70bd       0x1d /usr/lib/gcc/x86_64-linux-gnu/10/../../../x86_64-linux-gnu/libc.a(getc.o)
 .gcc_except_table
                0x00000000004a70da       0x22 /usr/lib/gcc/x86_64-linux-gnu/10/../../../x86_64-linux-gnu/libc.a(fileops.o)
 .gcc_except_table
                0x00000000004a70fc       0x13 /usr/lib/gcc/x86_64-linux-gnu/10/../../../x86_64-linux-gnu/libc.a(iofputs.o)
 .gcc_except_table
                0x00000000004a710f       0x13 /usr/lib/gcc/x86_64-linux-gnu/10/../../../x86_64-linux-gnu/libc.a(iofwrite.o)
 .gcc_except_table
                0x00000000004a7122       0x13 /usr/lib/gcc/x86_64-linux-gnu/10/../../../x86_64-linux-gnu/libc.a(iogetdelim.o)

.gnu_extab
 *(.gnu_extab*)

.exception_ranges
 *(.exception_ranges*)
                0x00000000004a9080                . = DATA_SEGMENT_ALIGN (CONSTANT (MAXPAGESIZE), CONSTANT (COMMONPAGESIZE))

.eh_frame
 *(.eh_frame)
 *(.eh_frame.*)

.gnu_extab
 *(.gnu_extab)

.gcc_except_table
 *(.gcc_except_table .gcc_except_table.*)

.exception_ranges
 *(.exception_ranges*)

.tdata          0x00000000004a9080       0x20
                [!provide]                        PROVIDE (__tdata_start = .)
 *(.tdata .tdata.* .gnu.linkonce.td.*)
 .tdata         0x00000000004a9080        0x8 /usr/lib/gcc/x86_64-linux-gnu/10/../../../x86_64-linux-gnu/libc.a(lc-ctype.o)
                0x00000000004a9080                _nl_current_LC_CTYPE
 .tdata         0x00000000004a9088        0x8 /usr/lib/gcc/x86_64-linux-gnu/10/../../../x86_64-linux-gnu/libc.a(lc-numeric.o)
                0x00000000004a9088                _nl_current_LC_NUMERIC
 .tdata         0x00000000004a9090        0x8 /usr/lib/gcc/x86_64-linux-gnu/10/../../../x86_64-linux-gnu/libc.a(global-locale.o)
                0x00000000004a9090                __libc_tsd_LOCALE
 .tdata         0x00000000004a9098        0x8 /usr/lib/gcc/x86_64-linux-gnu/10/../../../x86_64-linux-gnu/libc.a(lc-monetary.o)
                0x00000000004a9098                _nl_current_LC_MONETARY

.tbss           0x00000000004a90a0       0x40
 *(.tbss .tbss.* .gnu.linkonce.tb.*)
 .tbss          0x00000000004a90a0        0x4 /usr/lib/gcc/x86_64-linux-gnu/10/../../../x86_64-linux-gnu/libc.a(errno.o)
                0x00000000004a90a0                errno
                0x00000000004a90a0                __libc_errno
 *fill*         0x00000000004a90a4        0x4 
 .tbss          0x00000000004a90a8       0x18 /usr/lib/gcc/x86_64-linux-gnu/10/../../../x86_64-linux-gnu/libc.a(malloc.o)
 .tbss          0x00000000004a90c0        0x8 /usr/lib/gcc/x86_64-linux-gnu/10/../../../x86_64-linux-gnu/libc.a(dl-error.o)
 .tbss          0x00000000004a90c8       0x18 /usr/lib/gcc/x86_64-linux-gnu/10/../../../x86_64-linux-gnu/libc.a(ctype-info.o)
                0x00000000004a90c8                __libc_tsd_CTYPE_TOLOWER
                0x00000000004a90d0                __libc_tsd_CTYPE_TOUPPER
                0x00000000004a90d8                __libc_tsd_CTYPE_B
 *(.tcommon)

.preinit_array  0x00000000004a90a0        0x0
                0x00000000004a90a0                PROVIDE (__preinit_array_start = .)
 *(.preinit_array)
                0x00000000004a90a0                PROVIDE (__preinit_array_end = .)

.init_array     0x00000000004a90a0       0x10
                0x00000000004a90a0                PROVIDE (__init_array_start = .)
 *(SORT_BY_INIT_PRIORITY(.init_array.*) SORT_BY_INIT_PRIORITY(.ctors.*))
 *(.init_array EXCLUDE_FILE(*crtend?.o *crtend.o *crtbegin?.o *crtbegin.o) .ctors)
 .init_array    0x00000000004a90a0        0x8 /usr/lib/gcc/x86_64-linux-gnu/10/crtbeginT.o
 .init_array    0x00000000004a90a8        0x8 /usr/lib/gcc/x86_64-linux-gnu/10/../../../x86_64-linux-gnu/libc.a(cacheinfo.o)
                0x00000000004a90b0                PROVIDE (__init_array_end = .)

.fini_array     0x00000000004a90b0       0x10
                0x00000000004a90b0                PROVIDE (__fini_array_start = .)
 *(SORT_BY_INIT_PRIORITY(.fini_array.*) SORT_BY_INIT_PRIORITY(.dtors.*))
 *(.fini_array EXCLUDE_FILE(*crtend?.o *crtend.o *crtbegin?.o *crtbegin.o) .dtors)
 .fini_array    0x00000000004a90b0        0x8 /usr/lib/gcc/x86_64-linux-gnu/10/crtbeginT.o
 .fini_array    0x00000000004a90b8        0x8 /usr/lib/gcc/x86_64-linux-gnu/10/../../../x86_64-linux-gnu/libc.a(sdlerror.o)
                0x00000000004a90c0                PROVIDE (__fini_array_end = .)

.ctors
 *crtbegin.o(.ctors)
 *crtbegin?.o(.ctors)
 *(EXCLUDE_FILE(*crtend?.o *crtend.o) .ctors)
 *(SORT_BY_NAME(.ctors.*))
 *(.ctors)

.dtors
 *crtbegin.o(.dtors)
 *crtbegin?.o(.dtors)
 *(EXCLUDE_FILE(*crtend?.o *crtend.o) .dtors)
 *(SORT_BY_NAME(.dtors.*))
 *(.dtors)

.jcr
 *(.jcr)

.data.rel.ro    0x00000000004a90c0     0x2e54
 *(.data.rel.ro.local* .gnu.linkonce.d.rel.ro.local.*)
 .data.rel.ro.local
                0x00000000004a90c0       0x20 /usr/lib/gcc/x86_64-linux-gnu/10/../../../x86_64-linux-gnu/libc.a(plural-exp.o)
                0x00000000004a90c0                __gettext_germanic_plural
 .data.rel.ro.local
                0x00000000004a90e0      0x6f0 /usr/lib/gcc/x86_64-linux-gnu/10/../../../x86_64-linux-gnu/libc.a(vfprintf-internal.o)
 *fill*         0x00000000004a97d0       0x10 
 .data.rel.ro.local
                0x00000000004a97e0       0x20 /usr/lib/gcc/x86_64-linux-gnu/10/../../../x86_64-linux-gnu/libc.a(wcsmbsload.o)
                0x00000000004a97e0                __wcsmbs_gconv_fcts_c
 .data.rel.ro.local
                0x00000000004a9800       0x68 /usr/lib/gcc/x86_64-linux-gnu/10/../../../x86_64-linux-gnu/libc.a(loadlocale.o)
 *fill*         0x00000000004a9868       0x18 
 .data.rel.ro.local
                0x00000000004a9880      0x2f0 /usr/lib/gcc/x86_64-linux-gnu/10/../../../x86_64-linux-gnu/libc.a(C-ctype.o)
                0x00000000004a9880                _nl_C_LC_CTYPE
 *fill*         0x00000000004a9b70       0x10 
 .data.rel.ro.local
                0x00000000004a9b80      0x6f0 /usr/lib/gcc/x86_64-linux-gnu/10/../../../x86_64-linux-gnu/libc.a(vfwprintf-internal.o)
 *fill*         0x00000000004aa270       0x10 
 .data.rel.ro.local
                0x00000000004aa280      0x438 /usr/lib/gcc/x86_64-linux-gnu/10/../../../x86_64-linux-gnu/libc.a(errlist.o)
                0x00000000004aa280                _sys_errlist
                0x00000000004aa280                sys_errlist
                0x00000000004aa280                _sys_errlist_internal
                0x00000000004aa280                __sys_errlist_internal
 *fill*         0x00000000004aa6b8        0x8 
 .data.rel.ro.local
                0x00000000004aa6c0       0x68 /usr/lib/gcc/x86_64-linux-gnu/10/../../../x86_64-linux-gnu/libc.a(C-messages.o)
                0x00000000004aa6c0                _nl_C_LC_MESSAGES
 *fill*         0x00000000004aa728       0x18 
 .data.rel.ro.local
                0x00000000004aa740      0x1b0 /usr/lib/gcc/x86_64-linux-gnu/10/../../../x86_64-linux-gnu/libc.a(C-monetary.o)
                0x00000000004aa740                _nl_C_LC_MONETARY
 *fill*         0x00000000004aa8f0       0x10 
 .data.rel.ro.local
                0x00000000004aa900       0x70 /usr/lib/gcc/x86_64-linux-gnu/10/../../../x86_64-linux-gnu/libc.a(C-numeric.o)
                0x00000000004aa900                _nl_C_LC_NUMERIC
 *fill*         0x00000000004aa970       0x10 
 .data.rel.ro.local
                0x00000000004aa980      0x538 /usr/lib/gcc/x86_64-linux-gnu/10/../../../x86_64-linux-gnu/libc.a(C-time.o)
                0x00000000004aa980                _nl_C_LC_TIME
 *fill*         0x00000000004aaeb8        0x8 
 .data.rel.ro.local
                0x00000000004aaec0       0x58 /usr/lib/gcc/x86_64-linux-gnu/10/../../../x86_64-linux-gnu/libc.a(C-paper.o)
                0x00000000004aaec0                _nl_C_LC_PAPER
 *fill*         0x00000000004aaf18        0x8 
 .data.rel.ro.local
                0x00000000004aaf20       0x78 /usr/lib/gcc/x86_64-linux-gnu/10/../../../x86_64-linux-gnu/libc.a(C-name.o)
                0x00000000004aaf20                _nl_C_LC_NAME
 *fill*         0x00000000004aaf98        0x8 
 .data.rel.ro.local
                0x00000000004aafa0       0xa8 /usr/lib/gcc/x86_64-linux-gnu/10/../../../x86_64-linux-gnu/libc.a(C-address.o)
                0x00000000004aafa0                _nl_C_LC_ADDRESS
 *fill*         0x00000000004ab048       0x18 
 .data.rel.ro.local
                0x00000000004ab060       0x68 /usr/lib/gcc/x86_64-linux-gnu/10/../../../x86_64-linux-gnu/libc.a(C-telephone.o)
                0x00000000004ab060                _nl_C_LC_TELEPHONE
 *fill*         0x00000000004ab0c8       0x18 
 .data.rel.ro.local
                0x00000000004ab0e0       0x50 /usr/lib/gcc/x86_64-linux-gnu/10/../../../x86_64-linux-gnu/libc.a(C-measurement.o)
                0x00000000004ab0e0                _nl_C_LC_MEASUREMENT
 *fill*         0x00000000004ab130       0x10 
 .data.rel.ro.local
                0x00000000004ab140       0xc0 /usr/lib/gcc/x86_64-linux-gnu/10/../../../x86_64-linux-gnu/libc.a(C-identification.o)
                0x00000000004ab140                _nl_C_LC_IDENTIFICATION
 .data.rel.ro.local
                0x00000000004ab200       0xd8 /usr/lib/gcc/x86_64-linux-gnu/10/../../../x86_64-linux-gnu/libc.a(C-collate.o)
                0x00000000004ab200                _nl_C_LC_COLLATE
 *(.data.rel.ro .data.rel.ro.* .gnu.linkonce.d.rel.ro.*)
 *fill*         0x00000000004ab2d8        0x8 
 .data.rel.ro   0x00000000004ab2e0       0xe8 /usr/lib/gcc/x86_64-linux-gnu/10/../../../x86_64-linux-gnu/libc.a(wcsmbsload.o)
 *fill*         0x00000000004ab3c8       0x18 
 .data.rel.ro   0x00000000004ab3e0      0x620 /usr/lib/gcc/x86_64-linux-gnu/10/../../../x86_64-linux-gnu/libc.a(dl-tunables.o)
 .data.rel.ro   0x00000000004aba00       0xc0 /usr/lib/gcc/x86_64-linux-gnu/10/../../../x86_64-linux-gnu/libc.a(dl-support.o)
                0x00000000004aba80                _dl_random
                0x00000000004aba88                _dl_argv
                0x00000000004aba90                __libc_stack_end
                0x00000000004aba98                _dl_vdso_clock_getres_time64
                0x00000000004abaa0                _dl_vdso_getcpu
                0x00000000004abaa8                _dl_vdso_time
                0x00000000004abab0                _dl_vdso_gettimeofday
                0x00000000004abab8                _dl_vdso_clock_gettime64
 .data.rel.ro   0x00000000004abac0        0x4 /usr/lib/gcc/x86_64-linux-gnu/10/../../../x86_64-linux-gnu/libc.a(enbl-secure.o)
                0x00000000004abac0                __libc_enable_secure
 *fill*         0x00000000004abac4       0x1c 
 .data.rel.ro   0x00000000004abae0      0x180 /usr/lib/gcc/x86_64-linux-gnu/10/../../../x86_64-linux-gnu/libc.a(gconv_builtin.o)
 .data.rel.ro   0x00000000004abc60       0xe8 /usr/lib/gcc/x86_64-linux-gnu/10/../../../x86_64-linux-gnu/libc.a(setlocale.o)
 *fill*         0x00000000004abd48       0x18 
 .data.rel.ro   0x00000000004abd60       0x68 /usr/lib/gcc/x86_64-linux-gnu/10/../../../x86_64-linux-gnu/libc.a(findlocale.o)
                0x00000000004abd60                _nl_C
 *fill*         0x00000000004abdc8       0x18 
 .data.rel.ro   0x00000000004abde0       0xe8 /usr/lib/gcc/x86_64-linux-gnu/10/../../../x86_64-linux-gnu/libc.a(xlocale.o)
                0x00000000004abde0                _nl_C_locobj
 *fill*         0x00000000004abec8        0x8 
 .data.rel.ro   0x00000000004abed0       0x44 /usr/lib/gcc/x86_64-linux-gnu/10/../../../x86_64-linux-gnu/libc.a(dl-load.o)
                0x00000000004abf10                __stack_prot

.dynamic
 *(.dynamic)

.got            0x00000000004abf18       0xe0
 *(.got)
 .got           0x00000000004abf18       0xe0 /usr/lib/gcc/x86_64-linux-gnu/10/../../../x86_64-linux-gnu/crt1.o
 *(.igot)
                0x00000000004acfe8                . = DATA_SEGMENT_RELRO_END (., (SIZEOF (.got.plt) >= 0x18)?0x18:0x0)

.got.plt        0x00000000004ac000       0xd8
 *(.got.plt)
 .got.plt       0x00000000004ac000       0x18 /usr/lib/gcc/x86_64-linux-gnu/10/../../../x86_64-linux-gnu/crt1.o
                0x00000000004ac000                _GLOBAL_OFFSET_TABLE_
 *(.igot.plt)
 .igot.plt      0x00000000004ac018       0xc0 /usr/lib/gcc/x86_64-linux-gnu/10/../../../x86_64-linux-gnu/crt1.o

.data           0x00000000004ac0e0     0x1a30
 *(.data .data.* .gnu.linkonce.d.*)
 .data          0x00000000004ac0e0        0x4 /usr/lib/gcc/x86_64-linux-gnu/10/../../../x86_64-linux-gnu/crt1.o
                0x00000000004ac0e0                data_start
                0x00000000004ac0e0                __data_start
 .data          0x00000000004ac0e4        0x0 /usr/lib/gcc/x86_64-linux-gnu/10/../../../x86_64-linux-gnu/crti.o
 *fill*         0x00000000004ac0e4        0x4 
 .data          0x00000000004ac0e8        0x8 /usr/lib/gcc/x86_64-linux-gnu/10/crtbeginT.o
                0x00000000004ac0e8                __dso_handle
 .data          0x00000000004ac0f0        0x0 ropex.o
 .data          0x00000000004ac0f0        0x0 gadget.o
 .data          0x00000000004ac0f0        0x0 /usr/lib/gcc/x86_64-linux-gnu/10/../../../x86_64-linux-gnu/libc.a(libc-start.o)
 .data          0x00000000004ac0f0        0x0 /usr/lib/gcc/x86_64-linux-gnu/10/../../../x86_64-linux-gnu/libc.a(check_fds.o)
 .data          0x00000000004ac0f0        0x0 /usr/lib/gcc/x86_64-linux-gnu/10/../../../x86_64-linux-gnu/libc.a(libc-tls.o)
 .data          0x00000000004ac0f0        0x0 /usr/lib/gcc/x86_64-linux-gnu/10/../../../x86_64-linux-gnu/libc.a(elf-init.o)
 .data          0x00000000004ac0f0        0x0 /usr/lib/gcc/x86_64-linux-gnu/10/../../../x86_64-linux-gnu/libc.a(errno.o)
 .data          0x00000000004ac0f0        0x0 /usr/lib/gcc/x86_64-linux-gnu/10/../../../x86_64-linux-gnu/libc.a(assert.o)
 .data          0x00000000004ac0f0        0x0 /usr/lib/gcc/x86_64-linux-gnu/10/../../../x86_64-linux-gnu/libc.a(dcgettext.o)
 .data          0x00000000004ac0f0        0x0 /usr/lib/gcc/x86_64-linux-gnu/10/../../../x86_64-linux-gnu/libc.a(dcigettext.o)
 .data.rel.local
                0x00000000004ac0f0        0x8 /usr/lib/gcc/x86_64-linux-gnu/10/../../../x86_64-linux-gnu/libc.a(dcigettext.o)
                0x00000000004ac0f0                _nl_current_default_domain
 .data          0x00000000004ac0f8        0x0 /usr/lib/gcc/x86_64-linux-gnu/10/../../../x86_64-linux-gnu/libc.a(finddomain.o)
 .data          0x00000000004ac0f8        0x0 /usr/lib/gcc/x86_64-linux-gnu/10/../../../x86_64-linux-gnu/libc.a(loadmsgcat.o)
 .data          0x00000000004ac0f8        0x0 /usr/lib/gcc/x86_64-linux-gnu/10/../../../x86_64-linux-gnu/libc.a(localealias.o)
 .data          0x00000000004ac0f8        0x0 /usr/lib/gcc/x86_64-linux-gnu/10/../../../x86_64-linux-gnu/libc.a(l10nflist.o)
 .data          0x00000000004ac0f8        0x0 /usr/lib/gcc/x86_64-linux-gnu/10/../../../x86_64-linux-gnu/libc.a(explodename.o)
 .data          0x00000000004ac0f8        0x0 /usr/lib/gcc/x86_64-linux-gnu/10/../../../x86_64-linux-gnu/libc.a(plural.o)
 .data          0x00000000004ac0f8        0x0 /usr/lib/gcc/x86_64-linux-gnu/10/../../../x86_64-linux-gnu/libc.a(plural-exp.o)
 .data          0x00000000004ac0f8        0x0 /usr/lib/gcc/x86_64-linux-gnu/10/../../../x86_64-linux-gnu/libc.a(hash-string.o)
 .data          0x00000000004ac0f8        0x0 /usr/lib/gcc/x86_64-linux-gnu/10/../../../x86_64-linux-gnu/libc.a(bsd-_setjmp.o)
 .data          0x00000000004ac0f8        0x0 /usr/lib/gcc/x86_64-linux-gnu/10/../../../x86_64-linux-gnu/libc.a(raise.o)
 .data          0x00000000004ac0f8        0x0 /usr/lib/gcc/x86_64-linux-gnu/10/../../../x86_64-linux-gnu/libc.a(abort.o)
 .data          0x00000000004ac0f8        0x0 /usr/lib/gcc/x86_64-linux-gnu/10/../../../x86_64-linux-gnu/libc.a(msort.o)
 .data          0x00000000004ac0f8        0x0 /usr/lib/gcc/x86_64-linux-gnu/10/../../../x86_64-linux-gnu/libc.a(getenv.o)
 .data          0x00000000004ac0f8        0x0 /usr/lib/gcc/x86_64-linux-gnu/10/../../../x86_64-linux-gnu/libc.a(exit.o)
 .data          0x00000000004ac0f8        0x0 /usr/lib/gcc/x86_64-linux-gnu/10/../../../x86_64-linux-gnu/libc.a(cxa_atexit.o)
 .data.rel.local
                0x00000000004ac0f8        0x8 /usr/lib/gcc/x86_64-linux-gnu/10/../../../x86_64-linux-gnu/libc.a(cxa_atexit.o)
                0x00000000004ac0f8                __exit_funcs
 .data          0x00000000004ac100        0x0 /usr/lib/gcc/x86_64-linux-gnu/10/../../../x86_64-linux-gnu/libc.a(strtoul.o)
 .data          0x00000000004ac100        0x0 /usr/lib/gcc/x86_64-linux-gnu/10/../../../x86_64-linux-gnu/libc.a(strtoul_l.o)
 .data          0x00000000004ac100        0x0 /usr/lib/gcc/x86_64-linux-gnu/10/../../../x86_64-linux-gnu/libc.a(grouping.o)
 .data          0x00000000004ac100        0x0 /usr/lib/gcc/x86_64-linux-gnu/10/../../../x86_64-linux-gnu/libc.a(fprintf.o)
 .data          0x00000000004ac100        0x0 /usr/lib/gcc/x86_64-linux-gnu/10/../../../x86_64-linux-gnu/libc.a(asprintf.o)
 .data          0x00000000004ac100        0x0 /usr/lib/gcc/x86_64-linux-gnu/10/../../../x86_64-linux-gnu/libc.a(vfprintf-internal.o)
 .data          0x00000000004ac100        0x0 /usr/lib/gcc/x86_64-linux-gnu/10/../../../x86_64-linux-gnu/libc.a(printf-parsemb.o)
 .data          0x00000000004ac100        0x0 /usr/lib/gcc/x86_64-linux-gnu/10/../../../x86_64-linux-gnu/libc.a(fxprintf.o)
 .data          0x00000000004ac100        0x0 /usr/lib/gcc/x86_64-linux-gnu/10/../../../x86_64-linux-gnu/libc.a(iofclose.o)
 .data.rel.local.DW.ref.__gcc_personality_v0
                0x00000000004ac100        0x8 /usr/lib/gcc/x86_64-linux-gnu/10/../../../x86_64-linux-gnu/libc.a(iofclose.o)
                0x00000000004ac100                DW.ref.__gcc_personality_v0
 .data          0x00000000004ac108        0x0 /usr/lib/gcc/x86_64-linux-gnu/10/../../../x86_64-linux-gnu/libc.a(iofflush.o)
 .data          0x00000000004ac108        0x0 /usr/lib/gcc/x86_64-linux-gnu/10/../../../x86_64-linux-gnu/libc.a(iofopen.o)
 .data          0x00000000004ac108        0x0 /usr/lib/gcc/x86_64-linux-gnu/10/../../../x86_64-linux-gnu/libc.a(iopadn.o)
 .data          0x00000000004ac108        0x0 /usr/lib/gcc/x86_64-linux-gnu/10/../../../x86_64-linux-gnu/libc.a(ioputs.o)
 .data          0x00000000004ac108        0x0 /usr/lib/gcc/x86_64-linux-gnu/10/../../../x86_64-linux-gnu/libc.a(wfileops.o)
 .data          0x00000000004ac108        0x0 /usr/lib/gcc/x86_64-linux-gnu/10/../../../x86_64-linux-gnu/libc.a(iofwide.o)
 .data          0x00000000004ac108        0x0 /usr/lib/gcc/x86_64-linux-gnu/10/../../../x86_64-linux-gnu/libc.a(getc.o)
 .data          0x00000000004ac108        0x0 /usr/lib/gcc/x86_64-linux-gnu/10/../../../x86_64-linux-gnu/libc.a(vasprintf.o)
 .data          0x00000000004ac108        0x0 /usr/lib/gcc/x86_64-linux-gnu/10/../../../x86_64-linux-gnu/libc.a(libc_fatal.o)
 .data          0x00000000004ac108        0x0 /usr/lib/gcc/x86_64-linux-gnu/10/../../../x86_64-linux-gnu/libc.a(vtables.o)
 .data          0x00000000004ac108        0x0 /usr/lib/gcc/x86_64-linux-gnu/10/../../../x86_64-linux-gnu/libc.a(iofgets_u.o)
 .data          0x00000000004ac108        0x0 /usr/lib/gcc/x86_64-linux-gnu/10/../../../x86_64-linux-gnu/libc.a(fileops.o)
 .data          0x00000000004ac108        0x0 /usr/lib/gcc/x86_64-linux-gnu/10/../../../x86_64-linux-gnu/libc.a(genops.o)
 .data          0x00000000004ac108        0x0 /usr/lib/gcc/x86_64-linux-gnu/10/../../../x86_64-linux-gnu/libc.a(stdfiles.o)
 *fill*         0x00000000004ac108       0x18 
 .data.rel.local
                0x00000000004ac120      0x5a8 /usr/lib/gcc/x86_64-linux-gnu/10/../../../x86_64-linux-gnu/libc.a(stdfiles.o)
                0x00000000004ac120                _IO_list_all
                0x00000000004ac140                _IO_2_1_stderr_
                0x00000000004ac320                _IO_2_1_stdout_
                0x00000000004ac500                _IO_2_1_stdin_
 .data          0x00000000004ac6c8        0x0 /usr/lib/gcc/x86_64-linux-gnu/10/../../../x86_64-linux-gnu/libc.a(stdio.o)
 .data.rel      0x00000000004ac6c8       0x18 /usr/lib/gcc/x86_64-linux-gnu/10/../../../x86_64-linux-gnu/libc.a(stdio.o)
                0x00000000004ac6c8                stderr
                0x00000000004ac6d0                stdout
                0x00000000004ac6d8                stdin
 .data          0x00000000004ac6e0        0x0 /usr/lib/gcc/x86_64-linux-gnu/10/../../../x86_64-linux-gnu/libc.a(strops.o)
 .data          0x00000000004ac6e0        0x0 /usr/lib/gcc/x86_64-linux-gnu/10/../../../x86_64-linux-gnu/libc.a(alloca_cutoff.o)
 .data          0x00000000004ac6e0        0x0 /usr/lib/gcc/x86_64-linux-gnu/10/../../../x86_64-linux-gnu/libc.a(libc-lowlevellock.o)
 .data          0x00000000004ac6e0       0x90 /usr/lib/gcc/x86_64-linux-gnu/10/../../../x86_64-linux-gnu/libc.a(malloc.o)
                0x00000000004ac6e4                __libc_malloc_initialized
 *fill*         0x00000000004ac770       0x10 
 .data.rel.local
                0x00000000004ac780      0x8c0 /usr/lib/gcc/x86_64-linux-gnu/10/../../../x86_64-linux-gnu/libc.a(malloc.o)
                0x00000000004ac780                __memalign_hook
                0x00000000004ac788                __realloc_hook
                0x00000000004ac790                __malloc_hook
                0x00000000004ad038                __morecore
 .data          0x00000000004ad040        0x0 /usr/lib/gcc/x86_64-linux-gnu/10/../../../x86_64-linux-gnu/libc.a(morecore.o)
 .data          0x00000000004ad040        0x0 /usr/lib/gcc/x86_64-linux-gnu/10/../../../x86_64-linux-gnu/libc.a(scratch_buffer_grow_preserve.o)
 .data          0x00000000004ad040        0x0 /usr/lib/gcc/x86_64-linux-gnu/10/../../../x86_64-linux-gnu/libc.a(scratch_buffer_set_array_size.o)
 .data          0x00000000004ad040        0x0 /usr/lib/gcc/x86_64-linux-gnu/10/../../../x86_64-linux-gnu/libc.a(strchr.o)
 .data          0x00000000004ad040        0x0 /usr/lib/gcc/x86_64-linux-gnu/10/../../../x86_64-linux-gnu/libc.a(strcmp.o)
 .data          0x00000000004ad040        0x0 /usr/lib/gcc/x86_64-linux-gnu/10/../../../x86_64-linux-gnu/libc.a(strcpy.o)
 .data          0x00000000004ad040        0x0 /usr/lib/gcc/x86_64-linux-gnu/10/../../../x86_64-linux-gnu/libc.a(strcspn.o)
 .data          0x00000000004ad040        0x0 /usr/lib/gcc/x86_64-linux-gnu/10/../../../x86_64-linux-gnu/libc.a(strdup.o)
 .data          0x00000000004ad040        0x0 /usr/lib/gcc/x86_64-linux-gnu/10/../../../x86_64-linux-gnu/libc.a(_strerror.o)
 .data          0x00000000004ad040        0x0 /usr/lib/gcc/x86_64-linux-gnu/10/../../../x86_64-linux-gnu/libc.a(strlen.o)
 .data          0x00000000004ad040        0x0 /usr/lib/gcc/x86_64-linux-gnu/10/../../../x86_64-linux-gnu/libc.a(strnlen.o)
 .data          0x00000000004ad040        0x0 /usr/lib/gcc/x86_64-linux-gnu/10/../../../x86_64-linux-gnu/libc.a(strncmp.o)
 .data          0x00000000004ad040        0x0 /usr/lib/gcc/x86_64-linux-gnu/10/../../../x86_64-linux-gnu/libc.a(strstr.o)
 .data          0x00000000004ad040        0x0 /usr/lib/gcc/x86_64-linux-gnu/10/../../../x86_64-linux-gnu/libc.a(memcmp.o)
 .data          0x00000000004ad040        0x0 /usr/lib/gcc/x86_64-linux-gnu/10/../../../x86_64-linux-gnu/libc.a(memmove.o)
 .data          0x00000000004ad040        0x0 /usr/lib/gcc/x86_64-linux-gnu/10/../../../x86_64-linux-gnu/libc.a(memset.o)
 .data          0x00000000004ad040        0x0 /usr/lib/gcc/x86_64-linux-gnu/10/../../../x86_64-linux-gnu/libc.a(mempcpy.o)
 .data          0x00000000004ad040        0x0 /usr/lib/gcc/x86_64-linux-gnu/10/../../../x86_64-linux-gnu/libc.a(stpcpy.o)
 .data          0x00000000004ad040        0x0 /usr/lib/gcc/x86_64-linux-gnu/10/../../../x86_64-linux-gnu/libc.a(strcasecmp_l.o)
 .data          0x00000000004ad040        0x0 /usr/lib/gcc/x86_64-linux-gnu/10/../../../x86_64-linux-gnu/libc.a(memcpy.o)
 .data          0x00000000004ad040        0x0 /usr/lib/gcc/x86_64-linux-gnu/10/../../../x86_64-linux-gnu/libc.a(rawmemchr.o)
 .data          0x00000000004ad040        0x0 /usr/lib/gcc/x86_64-linux-gnu/10/../../../x86_64-linux-gnu/libc.a(strchrnul.o)
 .data          0x00000000004ad040        0x0 /usr/lib/gcc/x86_64-linux-gnu/10/../../../x86_64-linux-gnu/libc.a(strcmp-sse2.o)
 .data          0x00000000004ad040        0x0 /usr/lib/gcc/x86_64-linux-gnu/10/../../../x86_64-linux-gnu/libc.a(strcmp-sse2-unaligned.o)
 .data          0x00000000004ad040        0x0 /usr/lib/gcc/x86_64-linux-gnu/10/../../../x86_64-linux-gnu/libc.a(strcmp-ssse3.o)
 .data          0x00000000004ad040        0x0 /usr/lib/gcc/x86_64-linux-gnu/10/../../../x86_64-linux-gnu/libc.a(strcmp-avx2.o)
 .data          0x00000000004ad040        0x0 /usr/lib/gcc/x86_64-linux-gnu/10/../../../x86_64-linux-gnu/libc.a(strncmp-sse2.o)
 .data          0x00000000004ad040        0x0 /usr/lib/gcc/x86_64-linux-gnu/10/../../../x86_64-linux-gnu/libc.a(strncmp-ssse3.o)
 .data          0x00000000004ad040        0x0 /usr/lib/gcc/x86_64-linux-gnu/10/../../../x86_64-linux-gnu/libc.a(strncmp-sse4_2.o)
 .data          0x00000000004ad040        0x0 /usr/lib/gcc/x86_64-linux-gnu/10/../../../x86_64-linux-gnu/libc.a(strncmp-avx2.o)
 .data          0x00000000004ad040        0x0 /usr/lib/gcc/x86_64-linux-gnu/10/../../../x86_64-linux-gnu/libc.a(rawmemchr-sse2.o)
 .data          0x00000000004ad040        0x0 /usr/lib/gcc/x86_64-linux-gnu/10/../../../x86_64-linux-gnu/libc.a(rawmemchr-avx2.o)
 .data          0x00000000004ad040        0x0 /usr/lib/gcc/x86_64-linux-gnu/10/../../../x86_64-linux-gnu/libc.a(memcmp-sse2.o)
 .data          0x00000000004ad040        0x0 /usr/lib/gcc/x86_64-linux-gnu/10/../../../x86_64-linux-gnu/libc.a(memcmp-avx2-movbe.o)
 .data          0x00000000004ad040        0x0 /usr/lib/gcc/x86_64-linux-gnu/10/../../../x86_64-linux-gnu/libc.a(memcmp-sse4.o)
 .data          0x00000000004ad040        0x0 /usr/lib/gcc/x86_64-linux-gnu/10/../../../x86_64-linux-gnu/libc.a(memcpy-ssse3.o)
 .data          0x00000000004ad040        0x0 /usr/lib/gcc/x86_64-linux-gnu/10/../../../x86_64-linux-gnu/libc.a(memmove-ssse3.o)
 .data          0x00000000004ad040        0x0 /usr/lib/gcc/x86_64-linux-gnu/10/../../../x86_64-linux-gnu/libc.a(memcpy-ssse3-back.o)
 .data          0x00000000004ad040        0x0 /usr/lib/gcc/x86_64-linux-gnu/10/../../../x86_64-linux-gnu/libc.a(memmove-ssse3-back.o)
 .data          0x00000000004ad040        0x0 /usr/lib/gcc/x86_64-linux-gnu/10/../../../x86_64-linux-gnu/libc.a(memmove-avx512-no-vzeroupper.o)
 .data          0x00000000004ad040        0x0 /usr/lib/gcc/x86_64-linux-gnu/10/../../../x86_64-linux-gnu/libc.a(strcasecmp_l-sse2.o)
 .data          0x00000000004ad040        0x0 /usr/lib/gcc/x86_64-linux-gnu/10/../../../x86_64-linux-gnu/libc.a(strcasecmp_l-ssse3.o)
 .data          0x00000000004ad040        0x0 /usr/lib/gcc/x86_64-linux-gnu/10/../../../x86_64-linux-gnu/libc.a(strcasecmp_l-sse4_2.o)
 .data          0x00000000004ad040        0x0 /usr/lib/gcc/x86_64-linux-gnu/10/../../../x86_64-linux-gnu/libc.a(strcasecmp_l-avx.o)
 .data          0x00000000004ad040        0x0 /usr/lib/gcc/x86_64-linux-gnu/10/../../../x86_64-linux-gnu/libc.a(strchr-sse2.o)
 .data          0x00000000004ad040        0x0 /usr/lib/gcc/x86_64-linux-gnu/10/../../../x86_64-linux-gnu/libc.a(strchrnul-sse2.o)
 .data          0x00000000004ad040        0x0 /usr/lib/gcc/x86_64-linux-gnu/10/../../../x86_64-linux-gnu/libc.a(strchr-avx2.o)
 .data          0x00000000004ad040        0x0 /usr/lib/gcc/x86_64-linux-gnu/10/../../../x86_64-linux-gnu/libc.a(strchrnul-avx2.o)
 .data          0x00000000004ad040        0x0 /usr/lib/gcc/x86_64-linux-gnu/10/../../../x86_64-linux-gnu/libc.a(strlen-sse2.o)
 .data          0x00000000004ad040        0x0 /usr/lib/gcc/x86_64-linux-gnu/10/../../../x86_64-linux-gnu/libc.a(strnlen-sse2.o)
 .data          0x00000000004ad040        0x0 /usr/lib/gcc/x86_64-linux-gnu/10/../../../x86_64-linux-gnu/libc.a(strlen-avx2.o)
 .data          0x00000000004ad040        0x0 /usr/lib/gcc/x86_64-linux-gnu/10/../../../x86_64-linux-gnu/libc.a(strnlen-avx2.o)
 .data          0x00000000004ad040        0x0 /usr/lib/gcc/x86_64-linux-gnu/10/../../../x86_64-linux-gnu/libc.a(strcpy-avx2.o)
 .data          0x00000000004ad040        0x0 /usr/lib/gcc/x86_64-linux-gnu/10/../../../x86_64-linux-gnu/libc.a(strcpy-sse2.o)
 .data          0x00000000004ad040        0x0 /usr/lib/gcc/x86_64-linux-gnu/10/../../../x86_64-linux-gnu/libc.a(stpcpy-sse2.o)
 .data          0x00000000004ad040        0x0 /usr/lib/gcc/x86_64-linux-gnu/10/../../../x86_64-linux-gnu/libc.a(strcpy-ssse3.o)
 .data          0x00000000004ad040        0x0 /usr/lib/gcc/x86_64-linux-gnu/10/../../../x86_64-linux-gnu/libc.a(stpcpy-ssse3.o)
 .data          0x00000000004ad040        0x0 /usr/lib/gcc/x86_64-linux-gnu/10/../../../x86_64-linux-gnu/libc.a(strcpy-sse2-unaligned.o)
 .data          0x00000000004ad040        0x0 /usr/lib/gcc/x86_64-linux-gnu/10/../../../x86_64-linux-gnu/libc.a(stpcpy-sse2-unaligned.o)
 .data          0x00000000004ad040        0x0 /usr/lib/gcc/x86_64-linux-gnu/10/../../../x86_64-linux-gnu/libc.a(stpcpy-avx2.o)
 .data          0x00000000004ad040        0x0 /usr/lib/gcc/x86_64-linux-gnu/10/../../../x86_64-linux-gnu/libc.a(strchr-sse2-no-bsf.o)
 .data          0x00000000004ad040        0x0 /usr/lib/gcc/x86_64-linux-gnu/10/../../../x86_64-linux-gnu/libc.a(memcmp-ssse3.o)
 .data          0x00000000004ad040        0x0 /usr/lib/gcc/x86_64-linux-gnu/10/../../../x86_64-linux-gnu/libc.a(strstr-sse2-unaligned.o)
 .data          0x00000000004ad040        0x0 /usr/lib/gcc/x86_64-linux-gnu/10/../../../x86_64-linux-gnu/libc.a(strcspn-sse2.o)
 .data          0x00000000004ad040        0x0 /usr/lib/gcc/x86_64-linux-gnu/10/../../../x86_64-linux-gnu/libc.a(strcspn-c.o)
 .data          0x00000000004ad040        0x0 /usr/lib/gcc/x86_64-linux-gnu/10/../../../x86_64-linux-gnu/libc.a(varshift.o)
 .data          0x00000000004ad040        0x0 /usr/lib/gcc/x86_64-linux-gnu/10/../../../x86_64-linux-gnu/libc.a(memset-avx512-no-vzeroupper.o)
 .data          0x00000000004ad040        0x0 /usr/lib/gcc/x86_64-linux-gnu/10/../../../x86_64-linux-gnu/libc.a(memmove-sse2-unaligned-erms.o)
 .data          0x00000000004ad040        0x0 /usr/lib/gcc/x86_64-linux-gnu/10/../../../x86_64-linux-gnu/libc.a(memmove-avx-unaligned-erms.o)
 .data          0x00000000004ad040        0x0 /usr/lib/gcc/x86_64-linux-gnu/10/../../../x86_64-linux-gnu/libc.a(memmove-avx512-unaligned-erms.o)
 .data          0x00000000004ad040        0x0 /usr/lib/gcc/x86_64-linux-gnu/10/../../../x86_64-linux-gnu/libc.a(memset-sse2-unaligned-erms.o)
 .data          0x00000000004ad040        0x0 /usr/lib/gcc/x86_64-linux-gnu/10/../../../x86_64-linux-gnu/libc.a(memset-avx2-unaligned-erms.o)
 .data          0x00000000004ad040        0x0 /usr/lib/gcc/x86_64-linux-gnu/10/../../../x86_64-linux-gnu/libc.a(memset-avx512-unaligned-erms.o)
 .data          0x00000000004ad040       0x40 /usr/lib/gcc/x86_64-linux-gnu/10/../../../x86_64-linux-gnu/libc.a(cacheinfo.o)
                0x00000000004ad040                __x86_raw_shared_cache_size
                0x00000000004ad048                __x86_raw_shared_cache_size_half
                0x00000000004ad050                __x86_shared_cache_size
                0x00000000004ad058                __x86_shared_cache_size_half
                0x00000000004ad060                __x86_raw_data_cache_size
                0x00000000004ad068                __x86_raw_data_cache_size_half
                0x00000000004ad070                __x86_data_cache_size
                0x00000000004ad078                __x86_data_cache_size_half
 .data          0x00000000004ad080        0x0 /usr/lib/gcc/x86_64-linux-gnu/10/../../../x86_64-linux-gnu/libc.a(strcasecmp_l-nonascii.o)
 .data          0x00000000004ad080        0x0 /usr/lib/gcc/x86_64-linux-gnu/10/../../../x86_64-linux-gnu/libc.a(wmempcpy.o)
 .data          0x00000000004ad080        0x0 /usr/lib/gcc/x86_64-linux-gnu/10/../../../x86_64-linux-gnu/libc.a(wcrtomb.o)
 .data          0x00000000004ad080        0x0 /usr/lib/gcc/x86_64-linux-gnu/10/../../../x86_64-linux-gnu/libc.a(mbsrtowcs.o)
 .data          0x00000000004ad080        0x0 /usr/lib/gcc/x86_64-linux-gnu/10/../../../x86_64-linux-gnu/libc.a(wcsrtombs.o)
 .data          0x00000000004ad080        0x0 /usr/lib/gcc/x86_64-linux-gnu/10/../../../x86_64-linux-gnu/libc.a(wcsnlen.o)
 .data          0x00000000004ad080        0x0 /usr/lib/gcc/x86_64-linux-gnu/10/../../../x86_64-linux-gnu/libc.a(wcsmbsload.o)
 .data          0x00000000004ad080        0x0 /usr/lib/gcc/x86_64-linux-gnu/10/../../../x86_64-linux-gnu/libc.a(mbsrtowcs_l.o)
 .data          0x00000000004ad080        0x0 /usr/lib/gcc/x86_64-linux-gnu/10/../../../x86_64-linux-gnu/libc.a(wcsnlen-sse4_1.o)
 .data          0x00000000004ad080        0x0 /usr/lib/gcc/x86_64-linux-gnu/10/../../../x86_64-linux-gnu/libc.a(wcsnlen-c.o)
 .data          0x00000000004ad080        0x0 /usr/lib/gcc/x86_64-linux-gnu/10/../../../x86_64-linux-gnu/libc.a(wcsnlen-avx2.o)
 .data          0x00000000004ad080        0x0 /usr/lib/gcc/x86_64-linux-gnu/10/../../../x86_64-linux-gnu/libc.a(_exit.o)
 .data          0x00000000004ad080        0x0 /usr/lib/gcc/x86_64-linux-gnu/10/../../../x86_64-linux-gnu/libc.a(sysconf.o)
 .data          0x00000000004ad080        0x0 /usr/lib/gcc/x86_64-linux-gnu/10/../../../x86_64-linux-gnu/libc.a(sched_yield.o)
 .data          0x00000000004ad080        0x0 /usr/lib/gcc/x86_64-linux-gnu/10/../../../x86_64-linux-gnu/libc.a(get_child_max.o)
 .data          0x00000000004ad080        0x0 /usr/lib/gcc/x86_64-linux-gnu/10/../../../x86_64-linux-gnu/libc.a(environ.o)
 .data          0x00000000004ad080        0x0 /usr/lib/gcc/x86_64-linux-gnu/10/../../../x86_64-linux-gnu/libc.a(xstat.o)
 .data          0x00000000004ad080        0x0 /usr/lib/gcc/x86_64-linux-gnu/10/../../../x86_64-linux-gnu/libc.a(fxstat.o)
 .data          0x00000000004ad080        0x0 /usr/lib/gcc/x86_64-linux-gnu/10/../../../x86_64-linux-gnu/libc.a(open64.o)
 .data          0x00000000004ad080        0x0 /usr/lib/gcc/x86_64-linux-gnu/10/../../../x86_64-linux-gnu/libc.a(read.o)
 .data          0x00000000004ad080        0x0 /usr/lib/gcc/x86_64-linux-gnu/10/../../../x86_64-linux-gnu/libc.a(write.o)
 .data          0x00000000004ad080        0x0 /usr/lib/gcc/x86_64-linux-gnu/10/../../../x86_64-linux-gnu/libc.a(lseek64.o)
 .data          0x00000000004ad080        0x0 /usr/lib/gcc/x86_64-linux-gnu/10/../../../x86_64-linux-gnu/libc.a(getcwd.o)
 .data          0x00000000004ad080        0x0 /usr/lib/gcc/x86_64-linux-gnu/10/../../../x86_64-linux-gnu/libc.a(close_nocancel.o)
 .data          0x00000000004ad080        0x0 /usr/lib/gcc/x86_64-linux-gnu/10/../../../x86_64-linux-gnu/libc.a(fcntl_nocancel.o)
 .data          0x00000000004ad080        0x0 /usr/lib/gcc/x86_64-linux-gnu/10/../../../x86_64-linux-gnu/libc.a(open64_nocancel.o)
 .data          0x00000000004ad080        0x0 /usr/lib/gcc/x86_64-linux-gnu/10/../../../x86_64-linux-gnu/libc.a(openat64_nocancel.o)
 .data          0x00000000004ad080        0x0 /usr/lib/gcc/x86_64-linux-gnu/10/../../../x86_64-linux-gnu/libc.a(read_nocancel.o)
 .data          0x00000000004ad080        0x0 /usr/lib/gcc/x86_64-linux-gnu/10/../../../x86_64-linux-gnu/libc.a(write_nocancel.o)
 .data          0x00000000004ad080        0x0 /usr/lib/gcc/x86_64-linux-gnu/10/../../../x86_64-linux-gnu/libc.a(getrlimit64.o)
 .data          0x00000000004ad080        0x0 /usr/lib/gcc/x86_64-linux-gnu/10/../../../x86_64-linux-gnu/libc.a(sbrk.o)
 .data          0x00000000004ad080        0x0 /usr/lib/gcc/x86_64-linux-gnu/10/../../../x86_64-linux-gnu/libc.a(getpagesize.o)
 .data          0x00000000004ad080        0x0 /usr/lib/gcc/x86_64-linux-gnu/10/../../../x86_64-linux-gnu/libc.a(getdtsz.o)
 .data          0x00000000004ad080        0x0 /usr/lib/gcc/x86_64-linux-gnu/10/../../../x86_64-linux-gnu/libc.a(mmap64.o)
 .data          0x00000000004ad080        0x0 /usr/lib/gcc/x86_64-linux-gnu/10/../../../x86_64-linux-gnu/libc.a(munmap.o)
 .data          0x00000000004ad080        0x0 /usr/lib/gcc/x86_64-linux-gnu/10/../../../x86_64-linux-gnu/libc.a(mprotect.o)
 .data          0x00000000004ad080        0x0 /usr/lib/gcc/x86_64-linux-gnu/10/../../../x86_64-linux-gnu/libc.a(madvise.o)
 .data          0x00000000004ad080        0x0 /usr/lib/gcc/x86_64-linux-gnu/10/../../../x86_64-linux-gnu/libc.a(tsearch.o)
 .data          0x00000000004ad080        0x4 /usr/lib/gcc/x86_64-linux-gnu/10/../../../x86_64-linux-gnu/libc.a(getsysstats.o)
 .data          0x00000000004ad084        0x0 /usr/lib/gcc/x86_64-linux-gnu/10/../../../x86_64-linux-gnu/libc.a(getclktck.o)
 .data          0x00000000004ad084        0x0 /usr/lib/gcc/x86_64-linux-gnu/10/../../../x86_64-linux-gnu/libc.a(init-misc.o)
 *fill*         0x00000000004ad084        0x4 
 .data.rel.local
                0x00000000004ad088       0x10 /usr/lib/gcc/x86_64-linux-gnu/10/../../../x86_64-linux-gnu/libc.a(init-misc.o)
                0x00000000004ad088                __progname
                0x00000000004ad088                program_invocation_short_name
                0x00000000004ad090                program_invocation_name
                0x00000000004ad090                __progname_full
 .data          0x00000000004ad098        0x0 /usr/lib/gcc/x86_64-linux-gnu/10/../../../x86_64-linux-gnu/libc.a(mremap.o)
 .data          0x00000000004ad098        0x0 /usr/lib/gcc/x86_64-linux-gnu/10/../../../x86_64-linux-gnu/libc.a(sysinfo.o)
 .data          0x00000000004ad098        0x0 /usr/lib/gcc/x86_64-linux-gnu/10/../../../x86_64-linux-gnu/libc.a(wctrans.o)
 .data          0x00000000004ad098        0x0 /usr/lib/gcc/x86_64-linux-gnu/10/../../../x86_64-linux-gnu/libc.a(towctrans.o)
 .data          0x00000000004ad098        0x0 /usr/lib/gcc/x86_64-linux-gnu/10/../../../x86_64-linux-gnu/libc.a(chk_fail.o)
 .data          0x00000000004ad098        0x0 /usr/lib/gcc/x86_64-linux-gnu/10/../../../x86_64-linux-gnu/libc.a(readonly-area.o)
 .data          0x00000000004ad098        0x0 /usr/lib/gcc/x86_64-linux-gnu/10/../../../x86_64-linux-gnu/libc.a(stack_chk_fail.o)
 .data          0x00000000004ad098        0x0 /usr/lib/gcc/x86_64-linux-gnu/10/../../../x86_64-linux-gnu/libc.a(fortify_fail.o)
 .data          0x00000000004ad098        0x0 /usr/lib/gcc/x86_64-linux-gnu/10/../../../x86_64-linux-gnu/libc.a(dl-debug.o)
 .data          0x00000000004ad098        0x0 /usr/lib/gcc/x86_64-linux-gnu/10/../../../x86_64-linux-gnu/libc.a(dl-tls.o)
 .data          0x00000000004ad098        0x0 /usr/lib/gcc/x86_64-linux-gnu/10/../../../x86_64-linux-gnu/libc.a(dl-tunables.o)
 *fill*         0x00000000004ad098        0x8 
 .data          0x00000000004ad0a0       0x98 /usr/lib/gcc/x86_64-linux-gnu/10/../../../x86_64-linux-gnu/libc.a(dl-support.o)
                0x00000000004ad0a0                _dl_load_write_lock
                0x00000000004ad0e0                _dl_load_lock
                0x00000000004ad108                _dl_stack_flags
                0x00000000004ad10c                _dl_fpu_control
                0x00000000004ad110                _dl_correct_cache_id
                0x00000000004ad114                _dl_debug_fd
                0x00000000004ad118                _dl_pagesize
                0x00000000004ad120                _dl_load_adds
                0x00000000004ad128                _dl_nns
                0x00000000004ad130                _dl_use_load_bias
 .data.rel      0x00000000004ad138        0x8 /usr/lib/gcc/x86_64-linux-gnu/10/../../../x86_64-linux-gnu/libc.a(dl-support.o)
                0x00000000004ad138                _dl_make_stack_executable_hook
 .data.rel.local
                0x00000000004ad140      0x588 /usr/lib/gcc/x86_64-linux-gnu/10/../../../x86_64-linux-gnu/libc.a(dl-support.o)
                0x00000000004ad140                _dl_init_static_tls
                0x00000000004ad150                _dl_initial_searchlist
                0x00000000004ad180                _dl_ns
 .data          0x00000000004ad6c8        0x0 /usr/lib/gcc/x86_64-linux-gnu/10/../../../x86_64-linux-gnu/libc.a(enbl-secure.o)
 .data          0x00000000004ad6c8        0x0 /usr/lib/gcc/x86_64-linux-gnu/10/../../../x86_64-linux-gnu/libc.a(dl-profstub.o)
 .data          0x00000000004ad6c8        0x0 /usr/lib/gcc/x86_64-linux-gnu/10/../../../x86_64-linux-gnu/libc.a(dl-sysdep.o)
 .data          0x00000000004ad6c8        0x0 /usr/lib/gcc/x86_64-linux-gnu/10/../../../x86_64-linux-gnu/libc.a(dl-error.o)
 .data          0x00000000004ad6c8        0x4 /usr/lib/gcc/x86_64-linux-gnu/10/../../../x86_64-linux-gnu/libc.a(init-first.o)
                0x00000000004ad6c8                __libc_multiple_libcs
 .data          0x00000000004ad6cc        0x0 /usr/lib/gcc/x86_64-linux-gnu/10/../../../x86_64-linux-gnu/libc.a(gconv_open.o)
 .data          0x00000000004ad6cc        0x0 /usr/lib/gcc/x86_64-linux-gnu/10/../../../x86_64-linux-gnu/libc.a(gconv.o)
 .data          0x00000000004ad6cc        0x0 /usr/lib/gcc/x86_64-linux-gnu/10/../../../x86_64-linux-gnu/libc.a(gconv_close.o)
 .data          0x00000000004ad6cc        0x0 /usr/lib/gcc/x86_64-linux-gnu/10/../../../x86_64-linux-gnu/libc.a(gconv_db.o)
 .data          0x00000000004ad6cc        0x0 /usr/lib/gcc/x86_64-linux-gnu/10/../../../x86_64-linux-gnu/libc.a(gconv_conf.o)
 *fill*         0x00000000004ad6cc       0x14 
 .data.rel.local
                0x00000000004ad6e0      0x2a0 /usr/lib/gcc/x86_64-linux-gnu/10/../../../x86_64-linux-gnu/libc.a(gconv_conf.o)
 .data          0x00000000004ad980        0x0 /usr/lib/gcc/x86_64-linux-gnu/10/../../../x86_64-linux-gnu/libc.a(gconv_builtin.o)
 .data          0x00000000004ad980        0x0 /usr/lib/gcc/x86_64-linux-gnu/10/../../../x86_64-linux-gnu/libc.a(gconv_simple.o)
 .data          0x00000000004ad980        0x0 /usr/lib/gcc/x86_64-linux-gnu/10/../../../x86_64-linux-gnu/libc.a(gconv_trans.o)
 .data          0x00000000004ad980        0x0 /usr/lib/gcc/x86_64-linux-gnu/10/../../../x86_64-linux-gnu/libc.a(gconv_cache.o)
 .data          0x00000000004ad980        0x0 /usr/lib/gcc/x86_64-linux-gnu/10/../../../x86_64-linux-gnu/libc.a(gconv_dl.o)
 .data          0x00000000004ad980        0x0 /usr/lib/gcc/x86_64-linux-gnu/10/../../../x86_64-linux-gnu/libc.a(gconv_charset.o)
 .data          0x00000000004ad980        0x0 /usr/lib/gcc/x86_64-linux-gnu/10/../../../x86_64-linux-gnu/libc.a(setlocale.o)
 .data          0x00000000004ad980        0x0 /usr/lib/gcc/x86_64-linux-gnu/10/../../../x86_64-linux-gnu/libc.a(findlocale.o)
 .data          0x00000000004ad980        0x0 /usr/lib/gcc/x86_64-linux-gnu/10/../../../x86_64-linux-gnu/libc.a(loadlocale.o)
 .data          0x00000000004ad980        0x0 /usr/lib/gcc/x86_64-linux-gnu/10/../../../x86_64-linux-gnu/libc.a(loadarchive.o)
 .data          0x00000000004ad980        0x0 /usr/lib/gcc/x86_64-linux-gnu/10/../../../x86_64-linux-gnu/libc.a(lc-ctype.o)
 .data          0x00000000004ad980        0x0 /usr/lib/gcc/x86_64-linux-gnu/10/../../../x86_64-linux-gnu/libc.a(lc-numeric.o)
 .data          0x00000000004ad980        0x0 /usr/lib/gcc/x86_64-linux-gnu/10/../../../x86_64-linux-gnu/libc.a(C-ctype.o)
 .data          0x00000000004ad980        0x0 /usr/lib/gcc/x86_64-linux-gnu/10/../../../x86_64-linux-gnu/libc.a(SYS_libc.o)
 .data          0x00000000004ad980        0x0 /usr/lib/gcc/x86_64-linux-gnu/10/../../../x86_64-linux-gnu/libc.a(C_name.o)
 .data          0x00000000004ad980        0x0 /usr/lib/gcc/x86_64-linux-gnu/10/../../../x86_64-linux-gnu/libc.a(xlocale.o)
 .data          0x00000000004ad980        0x0 /usr/lib/gcc/x86_64-linux-gnu/10/../../../x86_64-linux-gnu/libc.a(localename.o)
 .data          0x00000000004ad980        0x0 /usr/lib/gcc/x86_64-linux-gnu/10/../../../x86_64-linux-gnu/libc.a(global-locale.o)
 .data.rel      0x00000000004ad980       0xe8 /usr/lib/gcc/x86_64-linux-gnu/10/../../../x86_64-linux-gnu/libc.a(global-locale.o)
                0x00000000004ad980                _nl_global_locale
 .data          0x00000000004ada68        0x0 /usr/lib/gcc/x86_64-linux-gnu/10/../../../x86_64-linux-gnu/libc.a(ctype-info.o)
 .data          0x00000000004ada68        0x0 /usr/lib/gcc/x86_64-linux-gnu/10/../../../x86_64-linux-gnu/libc.a(setfpucw.o)
 .data          0x00000000004ada68        0x2 /usr/lib/gcc/x86_64-linux-gnu/10/../../../x86_64-linux-gnu/libc.a(fpu_control.o)
                0x00000000004ada68                __fpu_control
 .data          0x00000000004ada6a        0x0 /usr/lib/gcc/x86_64-linux-gnu/10/../../../x86_64-linux-gnu/libc.a(setjmp.o)
 .data          0x00000000004ada6a        0x0 /usr/lib/gcc/x86_64-linux-gnu/10/../../../x86_64-linux-gnu/libc.a(sigjmp.o)
 .data          0x00000000004ada6a        0x0 /usr/lib/gcc/x86_64-linux-gnu/10/../../../x86_64-linux-gnu/libc.a(__longjmp.o)
 .data          0x00000000004ada6a        0x0 /usr/lib/gcc/x86_64-linux-gnu/10/../../../x86_64-linux-gnu/libc.a(sigaction.o)
 .data          0x00000000004ada6a        0x0 /usr/lib/gcc/x86_64-linux-gnu/10/../../../x86_64-linux-gnu/libc.a(sigprocmask.o)
 .data          0x00000000004ada6a        0x0 /usr/lib/gcc/x86_64-linux-gnu/10/../../../x86_64-linux-gnu/libc.a(qsort.o)
 .data          0x00000000004ada6a        0x0 /usr/lib/gcc/x86_64-linux-gnu/10/../../../x86_64-linux-gnu/libc.a(setenv.o)
 .data          0x00000000004ada6a        0x0 /usr/lib/gcc/x86_64-linux-gnu/10/../../../x86_64-linux-gnu/libc.a(secure-getenv.o)
 .data          0x00000000004ada6a        0x0 /usr/lib/gcc/x86_64-linux-gnu/10/../../../x86_64-linux-gnu/libc.a(strtol.o)
 .data          0x00000000004ada6a        0x0 /usr/lib/gcc/x86_64-linux-gnu/10/../../../x86_64-linux-gnu/libc.a(strtol_l.o)
 .data          0x00000000004ada6a        0x0 /usr/lib/gcc/x86_64-linux-gnu/10/../../../x86_64-linux-gnu/libc.a(_itoa.o)
 .data          0x00000000004ada6a        0x0 /usr/lib/gcc/x86_64-linux-gnu/10/../../../x86_64-linux-gnu/libc.a(itoa-digits.o)
 .data          0x00000000004ada6a        0x0 /usr/lib/gcc/x86_64-linux-gnu/10/../../../x86_64-linux-gnu/libc.a(itoa-udigits.o)
 .data          0x00000000004ada6a        0x0 /usr/lib/gcc/x86_64-linux-gnu/10/../../../x86_64-linux-gnu/libc.a(printf_fp.o)
 .data          0x00000000004ada6a        0x0 /usr/lib/gcc/x86_64-linux-gnu/10/../../../x86_64-linux-gnu/libc.a(reg-printf.o)
 .data          0x00000000004ada6a        0x0 /usr/lib/gcc/x86_64-linux-gnu/10/../../../x86_64-linux-gnu/libc.a(printf_fphex.o)
 .data          0x00000000004ada6a        0x0 /usr/lib/gcc/x86_64-linux-gnu/10/../../../x86_64-linux-gnu/libc.a(reg-modifier.o)
 *fill*         0x00000000004ada6a        0x2 
 .data          0x00000000004ada6c        0x4 /usr/lib/gcc/x86_64-linux-gnu/10/../../../x86_64-linux-gnu/libc.a(reg-type.o)
 .data          0x00000000004ada70        0x0 /usr/lib/gcc/x86_64-linux-gnu/10/../../../x86_64-linux-gnu/libc.a(funlockfile.o)
 .data          0x00000000004ada70        0x0 /usr/lib/gcc/x86_64-linux-gnu/10/../../../x86_64-linux-gnu/libc.a(vfwprintf-internal.o)
 .data          0x00000000004ada70        0x0 /usr/lib/gcc/x86_64-linux-gnu/10/../../../x86_64-linux-gnu/libc.a(errlist.o)
 .data          0x00000000004ada70        0x0 /usr/lib/gcc/x86_64-linux-gnu/10/../../../x86_64-linux-gnu/libc.a(printf-parsewc.o)
 .data          0x00000000004ada70        0x0 /usr/lib/gcc/x86_64-linux-gnu/10/../../../x86_64-linux-gnu/libc.a(filedoalloc.o)
 .data          0x00000000004ada70        0x0 /usr/lib/gcc/x86_64-linux-gnu/10/../../../x86_64-linux-gnu/libc.a(iofputs.o)
 .data          0x00000000004ada70        0x0 /usr/lib/gcc/x86_64-linux-gnu/10/../../../x86_64-linux-gnu/libc.a(wfiledoalloc.o)
 .data          0x00000000004ada70        0x0 /usr/lib/gcc/x86_64-linux-gnu/10/../../../x86_64-linux-gnu/libc.a(iofwrite.o)
 .data          0x00000000004ada70        0x0 /usr/lib/gcc/x86_64-linux-gnu/10/../../../x86_64-linux-gnu/libc.a(iogetdelim.o)
 .data          0x00000000004ada70        0x0 /usr/lib/gcc/x86_64-linux-gnu/10/../../../x86_64-linux-gnu/libc.a(iogetline.o)
 .data          0x00000000004ada70        0x0 /usr/lib/gcc/x86_64-linux-gnu/10/../../../x86_64-linux-gnu/libc.a(iowpadn.o)
 .data          0x00000000004ada70        0x0 /usr/lib/gcc/x86_64-linux-gnu/10/../../../x86_64-linux-gnu/libc.a(wgenops.o)
 .data          0x00000000004ada70        0x0 /usr/lib/gcc/x86_64-linux-gnu/10/../../../x86_64-linux-gnu/libc.a(libc-cancellation.o)
 .data          0x00000000004ada70        0x0 /usr/lib/gcc/x86_64-linux-gnu/10/../../../x86_64-linux-gnu/libc.a(strndup.o)
 .data          0x00000000004ada70        0x0 /usr/lib/gcc/x86_64-linux-gnu/10/../../../x86_64-linux-gnu/libc.a(strrchr.o)
 .data          0x00000000004ada70        0x0 /usr/lib/gcc/x86_64-linux-gnu/10/../../../x86_64-linux-gnu/libc.a(strtok_r.o)
 .data          0x00000000004ada70        0x0 /usr/lib/gcc/x86_64-linux-gnu/10/../../../x86_64-linux-gnu/libc.a(memchr.o)
 .data          0x00000000004ada70        0x0 /usr/lib/gcc/x86_64-linux-gnu/10/../../../x86_64-linux-gnu/libc.a(memmem.o)
 .data          0x00000000004ada70        0x0 /usr/lib/gcc/x86_64-linux-gnu/10/../../../x86_64-linux-gnu/libc.a(argz-ctsep.o)
 .data          0x00000000004ada70        0x0 /usr/lib/gcc/x86_64-linux-gnu/10/../../../x86_64-linux-gnu/libc.a(argz-addsep.o)
 .data          0x00000000004ada70        0x0 /usr/lib/gcc/x86_64-linux-gnu/10/../../../x86_64-linux-gnu/libc.a(memchr-sse2.o)
 .data          0x00000000004ada70        0x0 /usr/lib/gcc/x86_64-linux-gnu/10/../../../x86_64-linux-gnu/libc.a(memchr-avx2.o)
 .data          0x00000000004ada70        0x0 /usr/lib/gcc/x86_64-linux-gnu/10/../../../x86_64-linux-gnu/libc.a(strrchr-sse2.o)
 .data          0x00000000004ada70        0x0 /usr/lib/gcc/x86_64-linux-gnu/10/../../../x86_64-linux-gnu/libc.a(strrchr-avx2.o)
 .data          0x00000000004ada70        0x0 /usr/lib/gcc/x86_64-linux-gnu/10/../../../x86_64-linux-gnu/libc.a(wcslen.o)
 .data          0x00000000004ada70        0x0 /usr/lib/gcc/x86_64-linux-gnu/10/../../../x86_64-linux-gnu/libc.a(wmemchr.o)
 .data          0x00000000004ada70        0x0 /usr/lib/gcc/x86_64-linux-gnu/10/../../../x86_64-linux-gnu/libc.a(wmemcpy.o)
 .data          0x00000000004ada70        0x0 /usr/lib/gcc/x86_64-linux-gnu/10/../../../x86_64-linux-gnu/libc.a(wmemmove.o)
 .data          0x00000000004ada70        0x0 /usr/lib/gcc/x86_64-linux-gnu/10/../../../x86_64-linux-gnu/libc.a(wmemset.o)
 .data          0x00000000004ada70        0x0 /usr/lib/gcc/x86_64-linux-gnu/10/../../../x86_64-linux-gnu/libc.a(btowc.o)
 .data          0x00000000004ada70        0x0 /usr/lib/gcc/x86_64-linux-gnu/10/../../../x86_64-linux-gnu/libc.a(wcschrnul.o)
 .data          0x00000000004ada70        0x0 /usr/lib/gcc/x86_64-linux-gnu/10/../../../x86_64-linux-gnu/libc.a(wmemchr-sse2.o)
 .data          0x00000000004ada70        0x0 /usr/lib/gcc/x86_64-linux-gnu/10/../../../x86_64-linux-gnu/libc.a(wmemchr-avx2.o)
 .data          0x00000000004ada70        0x0 /usr/lib/gcc/x86_64-linux-gnu/10/../../../x86_64-linux-gnu/libc.a(wcslen-sse2.o)
 .data          0x00000000004ada70        0x0 /usr/lib/gcc/x86_64-linux-gnu/10/../../../x86_64-linux-gnu/libc.a(wcslen-avx2.o)
 .data          0x00000000004ada70        0x0 /usr/lib/gcc/x86_64-linux-gnu/10/../../../x86_64-linux-gnu/libc.a(clock_gettime.o)
 .data          0x00000000004ada70        0x0 /usr/lib/gcc/x86_64-linux-gnu/10/../../../x86_64-linux-gnu/libc.a(opendir.o)
 .data          0x00000000004ada70        0x0 /usr/lib/gcc/x86_64-linux-gnu/10/../../../x86_64-linux-gnu/libc.a(closedir.o)
 .data          0x00000000004ada70        0x0 /usr/lib/gcc/x86_64-linux-gnu/10/../../../x86_64-linux-gnu/libc.a(rewinddir.o)
 .data          0x00000000004ada70        0x0 /usr/lib/gcc/x86_64-linux-gnu/10/../../../x86_64-linux-gnu/libc.a(readdir64.o)
 .data          0x00000000004ada70        0x0 /usr/lib/gcc/x86_64-linux-gnu/10/../../../x86_64-linux-gnu/libc.a(fdopendir.o)
 .data          0x00000000004ada70        0x0 /usr/lib/gcc/x86_64-linux-gnu/10/../../../x86_64-linux-gnu/libc.a(uname.o)
 .data          0x00000000004ada70        0x0 /usr/lib/gcc/x86_64-linux-gnu/10/../../../x86_64-linux-gnu/libc.a(getuid.o)
 .data          0x00000000004ada70        0x0 /usr/lib/gcc/x86_64-linux-gnu/10/../../../x86_64-linux-gnu/libc.a(geteuid.o)
 .data          0x00000000004ada70        0x0 /usr/lib/gcc/x86_64-linux-gnu/10/../../../x86_64-linux-gnu/libc.a(getgid.o)
 .data          0x00000000004ada70        0x0 /usr/lib/gcc/x86_64-linux-gnu/10/../../../x86_64-linux-gnu/libc.a(getegid.o)
 .data          0x00000000004ada70        0x0 /usr/lib/gcc/x86_64-linux-gnu/10/../../../x86_64-linux-gnu/libc.a(lxstat.o)
 .data          0x00000000004ada70        0x0 /usr/lib/gcc/x86_64-linux-gnu/10/../../../x86_64-linux-gnu/libc.a(fxstatat.o)
 .data          0x00000000004ada70        0x0 /usr/lib/gcc/x86_64-linux-gnu/10/../../../x86_64-linux-gnu/libc.a(isatty.o)
 .data          0x00000000004ada70        0x0 /usr/lib/gcc/x86_64-linux-gnu/10/../../../x86_64-linux-gnu/libc.a(tcgetattr.o)
 .data          0x00000000004ada70        0x0 /usr/lib/gcc/x86_64-linux-gnu/10/../../../x86_64-linux-gnu/libc.a(brk.o)
 .data          0x00000000004ada70        0x0 /usr/lib/gcc/x86_64-linux-gnu/10/../../../x86_64-linux-gnu/libc.a(dl-load.o)
 .data          0x00000000004ada70        0x0 /usr/lib/gcc/x86_64-linux-gnu/10/../../../x86_64-linux-gnu/libc.a(dl-lookup.o)
 .data          0x00000000004ada70        0x0 /usr/lib/gcc/x86_64-linux-gnu/10/../../../x86_64-linux-gnu/libc.a(dl-object.o)
 .data          0x00000000004ada70        0x0 /usr/lib/gcc/x86_64-linux-gnu/10/../../../x86_64-linux-gnu/libc.a(dl-reloc.o)
 .data          0x00000000004ada70        0x0 /usr/lib/gcc/x86_64-linux-gnu/10/../../../x86_64-linux-gnu/libc.a(dl-hwcaps.o)
 .data          0x00000000004ada70        0x0 /usr/lib/gcc/x86_64-linux-gnu/10/../../../x86_64-linux-gnu/libc.a(dl-misc.o)
 .data          0x00000000004ada70        0x0 /usr/lib/gcc/x86_64-linux-gnu/10/../../../x86_64-linux-gnu/libc.a(dl-profile.o)
 .data          0x00000000004ada70        0x0 /usr/lib/gcc/x86_64-linux-gnu/10/../../../x86_64-linux-gnu/libc.a(dl-origin.o)
 .data          0x00000000004ada70        0x0 /usr/lib/gcc/x86_64-linux-gnu/10/../../../x86_64-linux-gnu/libc.a(dl-scope.o)
 .data          0x00000000004ada70        0x0 /usr/lib/gcc/x86_64-linux-gnu/10/../../../x86_64-linux-gnu/libc.a(dl-execstack.o)
 .data          0x00000000004ada70        0x0 /usr/lib/gcc/x86_64-linux-gnu/10/../../../x86_64-linux-gnu/libc.a(dl-trampoline.o)
 .data          0x00000000004ada70        0x0 /usr/lib/gcc/x86_64-linux-gnu/10/../../../x86_64-linux-gnu/libc.a(dl-exception.o)
 .data          0x00000000004ada70        0x0 /usr/lib/gcc/x86_64-linux-gnu/10/../../../x86_64-linux-gnu/libc.a(dl-cache.o)
 .data          0x00000000004ada70        0x0 /usr/lib/gcc/x86_64-linux-gnu/10/../../../x86_64-linux-gnu/libc.a(dl-tlsdesc.o)
 .data          0x00000000004ada70        0x0 /usr/lib/gcc/x86_64-linux-gnu/10/../../../x86_64-linux-gnu/libc.a(dl-libc.o)
 *fill*         0x00000000004ada70       0x10 
 .data.rel.local
                0x00000000004ada80       0x20 /usr/lib/gcc/x86_64-linux-gnu/10/../../../x86_64-linux-gnu/libc.a(dl-libc.o)
 .data          0x00000000004adaa0        0x0 /usr/lib/gcc/x86_64-linux-gnu/10/../../../x86_64-linux-gnu/libc.a(lc-monetary.o)
 .data          0x00000000004adaa0        0x0 /usr/lib/gcc/x86_64-linux-gnu/10/../../../x86_64-linux-gnu/libc.a(C-messages.o)
 .data          0x00000000004adaa0        0x0 /usr/lib/gcc/x86_64-linux-gnu/10/../../../x86_64-linux-gnu/libc.a(C-monetary.o)
 .data          0x00000000004adaa0        0x0 /usr/lib/gcc/x86_64-linux-gnu/10/../../../x86_64-linux-gnu/libc.a(C-numeric.o)
 .data          0x00000000004adaa0        0x0 /usr/lib/gcc/x86_64-linux-gnu/10/../../../x86_64-linux-gnu/libc.a(C-time.o)
 .data          0x00000000004adaa0        0x0 /usr/lib/gcc/x86_64-linux-gnu/10/../../../x86_64-linux-gnu/libc.a(C-paper.o)
 .data          0x00000000004adaa0        0x0 /usr/lib/gcc/x86_64-linux-gnu/10/../../../x86_64-linux-gnu/libc.a(C-name.o)
 .data          0x00000000004adaa0        0x0 /usr/lib/gcc/x86_64-linux-gnu/10/../../../x86_64-linux-gnu/libc.a(C-address.o)
 .data          0x00000000004adaa0        0x0 /usr/lib/gcc/x86_64-linux-gnu/10/../../../x86_64-linux-gnu/libc.a(C-telephone.o)
 .data          0x00000000004adaa0        0x0 /usr/lib/gcc/x86_64-linux-gnu/10/../../../x86_64-linux-gnu/libc.a(C-measurement.o)
 .data          0x00000000004adaa0        0x0 /usr/lib/gcc/x86_64-linux-gnu/10/../../../x86_64-linux-gnu/libc.a(C-identification.o)
 .data          0x00000000004adaa0        0x0 /usr/lib/gcc/x86_64-linux-gnu/10/../../../x86_64-linux-gnu/libc.a(C-collate.o)
 .data          0x00000000004adaa0        0x0 /usr/lib/gcc/x86_64-linux-gnu/10/../../../x86_64-linux-gnu/libc.a(cmp.o)
 .data          0x00000000004adaa0        0x0 /usr/lib/gcc/x86_64-linux-gnu/10/../../../x86_64-linux-gnu/libc.a(divrem.o)
 .data          0x00000000004adaa0        0x0 /usr/lib/gcc/x86_64-linux-gnu/10/../../../x86_64-linux-gnu/libc.a(lshift.o)
 .data          0x00000000004adaa0        0x0 /usr/lib/gcc/x86_64-linux-gnu/10/../../../x86_64-linux-gnu/libc.a(rshift.o)
 .data          0x00000000004adaa0        0x0 /usr/lib/gcc/x86_64-linux-gnu/10/../../../x86_64-linux-gnu/libc.a(mul.o)
 .data          0x00000000004adaa0        0x0 /usr/lib/gcc/x86_64-linux-gnu/10/../../../x86_64-linux-gnu/libc.a(mul_1.o)
 .data          0x00000000004adaa0        0x0 /usr/lib/gcc/x86_64-linux-gnu/10/../../../x86_64-linux-gnu/libc.a(mul_n.o)
 .data          0x00000000004adaa0        0x0 /usr/lib/gcc/x86_64-linux-gnu/10/../../../x86_64-linux-gnu/libc.a(sub_n.o)
 .data          0x00000000004adaa0        0x0 /usr/lib/gcc/x86_64-linux-gnu/10/../../../x86_64-linux-gnu/libc.a(submul_1.o)
 .data          0x00000000004adaa0        0x0 /usr/lib/gcc/x86_64-linux-gnu/10/../../../x86_64-linux-gnu/libc.a(dbl2mpn.o)
 .data          0x00000000004adaa0        0x0 /usr/lib/gcc/x86_64-linux-gnu/10/../../../x86_64-linux-gnu/libc.a(ldbl2mpn.o)
 .data          0x00000000004adaa0        0x0 /usr/lib/gcc/x86_64-linux-gnu/10/../../../x86_64-linux-gnu/libc.a(float1282mpn.o)
 .data          0x00000000004adaa0        0x0 /usr/lib/gcc/x86_64-linux-gnu/10/../../../x86_64-linux-gnu/libc.a(fpioconst.o)
 .data          0x00000000004adaa0        0x0 /usr/lib/gcc/x86_64-linux-gnu/10/../../../x86_64-linux-gnu/libc.a(itowa-digits.o)
 .data          0x00000000004adaa0        0x0 /usr/lib/gcc/x86_64-linux-gnu/10/../../../x86_64-linux-gnu/libc.a(sdlerror.o)
 .data.rel.local
                0x00000000004adaa0       0x68 /usr/lib/gcc/x86_64-linux-gnu/10/../../../x86_64-linux-gnu/libc.a(sdlerror.o)
 .data          0x00000000004adb08        0x0 /usr/lib/gcc/x86_64-linux-gnu/10/../../../x86_64-linux-gnu/libc.a(sdladdr.o)
 .data          0x00000000004adb08        0x0 /usr/lib/gcc/x86_64-linux-gnu/10/../../../x86_64-linux-gnu/libc.a(sdladdr1.o)
 .data          0x00000000004adb08        0x0 /usr/lib/gcc/x86_64-linux-gnu/10/../../../x86_64-linux-gnu/libc.a(sdlinfo.o)
 .data          0x00000000004adb08        0x0 /usr/lib/gcc/x86_64-linux-gnu/10/../../../x86_64-linux-gnu/libc.a(sdlmopen.o)
 .data          0x00000000004adb08        0x0 /usr/lib/gcc/x86_64-linux-gnu/10/../../../x86_64-linux-gnu/libc.a(strerror.o)
 .data          0x00000000004adb08        0x0 /usr/lib/gcc/x86_64-linux-gnu/10/../../../x86_64-linux-gnu/libc.a(strspn.o)
 .data          0x00000000004adb08        0x0 /usr/lib/gcc/x86_64-linux-gnu/10/../../../x86_64-linux-gnu/libc.a(strsep.o)
 .data          0x00000000004adb08        0x0 /usr/lib/gcc/x86_64-linux-gnu/10/../../../x86_64-linux-gnu/libc.a(strspn-sse2.o)
 .data          0x00000000004adb08        0x0 /usr/lib/gcc/x86_64-linux-gnu/10/../../../x86_64-linux-gnu/libc.a(strspn-c.o)
 .data          0x00000000004adb08        0x0 /usr/lib/gcc/x86_64-linux-gnu/10/../../../x86_64-linux-gnu/libc.a(getdents64.o)
 .data          0x00000000004adb08        0x0 /usr/lib/gcc/x86_64-linux-gnu/10/../../../x86_64-linux-gnu/libc.a(getpid.o)
 .data          0x00000000004adb08        0x0 /usr/lib/gcc/x86_64-linux-gnu/10/../../../x86_64-linux-gnu/libc.a(pread64_nocancel.o)
 .data          0x00000000004adb08        0x0 /usr/lib/gcc/x86_64-linux-gnu/10/../../../x86_64-linux-gnu/libc.a(profil.o)
 .data          0x00000000004adb08        0x0 /usr/lib/gcc/x86_64-linux-gnu/10/../../../x86_64-linux-gnu/libc.a(prof-freq.o)
 .data          0x00000000004adb08        0x0 /usr/lib/gcc/x86_64-linux-gnu/10/../../../x86_64-linux-gnu/libc.a(dl-runtime.o)
 .data          0x00000000004adb08        0x0 /usr/lib/gcc/x86_64-linux-gnu/10/../../../x86_64-linux-gnu/libc.a(dl-open.o)
 .data          0x00000000004adb08        0x0 /usr/lib/gcc/x86_64-linux-gnu/10/../../../x86_64-linux-gnu/libc.a(dl-close.o)
 .data          0x00000000004adb08        0x0 /usr/lib/gcc/x86_64-linux-gnu/10/../../../x86_64-linux-gnu/libc.a(dl-sort-maps.o)
 .data          0x00000000004adb08        0x0 /usr/lib/gcc/x86_64-linux-gnu/10/../../../x86_64-linux-gnu/libc.a(tlsdesc.o)
 .data          0x00000000004adb08        0x0 /usr/lib/gcc/x86_64-linux-gnu/10/../../../x86_64-linux-gnu/libc.a(dl-addr.o)
 .data          0x00000000004adb08        0x0 /usr/lib/gcc/x86_64-linux-gnu/10/../../../x86_64-linux-gnu/libc.a(dl-addr-obj.o)
 .data          0x00000000004adb08        0x0 /usr/lib/gcc/x86_64-linux-gnu/10/../../../x86_64-linux-gnu/libc.a(add_n.o)
 .data          0x00000000004adb08        0x0 /usr/lib/gcc/x86_64-linux-gnu/10/../../../x86_64-linux-gnu/libc.a(addmul_1.o)
 .data          0x00000000004adb08        0x0 /usr/lib/gcc/x86_64-linux-gnu/10/../../../x86_64-linux-gnu/libc.a(sdlopen.o)
 .data          0x00000000004adb08        0x0 /usr/lib/gcc/x86_64-linux-gnu/10/../../../x86_64-linux-gnu/libc.a(sdlclose.o)
 .data          0x00000000004adb08        0x0 /usr/lib/gcc/x86_64-linux-gnu/10/../../../x86_64-linux-gnu/libc.a(sdlsym.o)
 .data          0x00000000004adb08        0x0 /usr/lib/gcc/x86_64-linux-gnu/10/../../../x86_64-linux-gnu/libc.a(sdlvsym.o)
 .data          0x00000000004adb08        0x0 /usr/lib/gcc/x86_64-linux-gnu/10/../../../x86_64-linux-gnu/libc.a(setitimer.o)
 .data          0x00000000004adb08        0x0 /usr/lib/gcc/x86_64-linux-gnu/10/../../../x86_64-linux-gnu/libc.a(dl-deps.o)
 .data          0x00000000004adb08        0x0 /usr/lib/gcc/x86_64-linux-gnu/10/../../../x86_64-linux-gnu/libc.a(dl-init.o)
 .data          0x00000000004adb08        0x0 /usr/lib/gcc/x86_64-linux-gnu/10/../../../x86_64-linux-gnu/libc.a(dl-version.o)
 .data          0x00000000004adb08        0x0 /usr/lib/gcc/x86_64-linux-gnu/10/../../../x86_64-linux-gnu/libc.a(dl-sym.o)
 .data          0x00000000004adb08        0x0 /usr/lib/gcc/x86_64-linux-gnu/10/libgcc.a(unordtf2.o)
 .data          0x00000000004adb08        0x0 /usr/lib/gcc/x86_64-linux-gnu/10/libgcc.a(letf2.o)
 .data          0x00000000004adb08        0x0 /usr/lib/gcc/x86_64-linux-gnu/10/libgcc.a(sfp-exceptions.o)
 .data          0x00000000004adb08        0x0 /usr/lib/gcc/x86_64-linux-gnu/10/libgcc_eh.a(unwind-dw2.o)
 .data          0x00000000004adb08        0x8 /usr/lib/gcc/x86_64-linux-gnu/10/libgcc_eh.a(unwind-dw2-fde-dip.o)
 .data          0x00000000004adb10        0x0 /usr/lib/gcc/x86_64-linux-gnu/10/libgcc_eh.a(unwind-c.o)
 .data          0x00000000004adb10        0x0 /usr/lib/gcc/x86_64-linux-gnu/10/../../../x86_64-linux-gnu/libc.a(dl-iteratephdr.o)
 .data          0x00000000004adb10        0x0 /usr/lib/gcc/x86_64-linux-gnu/10/crtend.o
 .data          0x00000000004adb10        0x0 /usr/lib/gcc/x86_64-linux-gnu/10/../../../x86_64-linux-gnu/crtn.o

.tm_clone_table
                0x00000000004adb10        0x0
 .tm_clone_table
                0x00000000004adb10        0x0 /usr/lib/gcc/x86_64-linux-gnu/10/crtbeginT.o
 .tm_clone_table
                0x00000000004adb10        0x0 /usr/lib/gcc/x86_64-linux-gnu/10/crtend.o

__libc_subfreeres
                0x00000000004adb10       0x48
 __libc_subfreeres
                0x00000000004adb10        0x8 /usr/lib/gcc/x86_64-linux-gnu/10/../../../x86_64-linux-gnu/libc.a(dcigettext.o)
 __libc_subfreeres
                0x00000000004adb18        0x8 /usr/lib/gcc/x86_64-linux-gnu/10/../../../x86_64-linux-gnu/libc.a(genops.o)
 __libc_subfreeres
                0x00000000004adb20        0x8 /usr/lib/gcc/x86_64-linux-gnu/10/../../../x86_64-linux-gnu/libc.a(gconv_db.o)
 __libc_subfreeres
                0x00000000004adb28        0x8 /usr/lib/gcc/x86_64-linux-gnu/10/../../../x86_64-linux-gnu/libc.a(gconv_conf.o)
 __libc_subfreeres
                0x00000000004adb30        0x8 /usr/lib/gcc/x86_64-linux-gnu/10/../../../x86_64-linux-gnu/libc.a(gconv_cache.o)
 __libc_subfreeres
                0x00000000004adb38        0x8 /usr/lib/gcc/x86_64-linux-gnu/10/../../../x86_64-linux-gnu/libc.a(gconv_dl.o)
 __libc_subfreeres
                0x00000000004adb40        0x8 /usr/lib/gcc/x86_64-linux-gnu/10/../../../x86_64-linux-gnu/libc.a(setenv.o)
 __libc_subfreeres
                0x00000000004adb48        0x8 /usr/lib/gcc/x86_64-linux-gnu/10/../../../x86_64-linux-gnu/libc.a(reg-modifier.o)
 __libc_subfreeres
                0x00000000004adb50        0x8 /usr/lib/gcc/x86_64-linux-gnu/10/../../../x86_64-linux-gnu/libc.a(dl-libc.o)

__libc_IO_vtables
                0x00000000004adb60      0x6a8
 __libc_IO_vtables
                0x00000000004adb60       0xa8 /usr/lib/gcc/x86_64-linux-gnu/10/../../../x86_64-linux-gnu/libc.a(vfprintf-internal.o)
 *fill*         0x00000000004adc08       0x18 
 __libc_IO_vtables
                0x00000000004adc20      0x228 /usr/lib/gcc/x86_64-linux-gnu/10/../../../x86_64-linux-gnu/libc.a(wfileops.o)
                0x00000000004adc20                _IO_wfile_jumps_maybe_mmap
                0x00000000004adce0                _IO_wfile_jumps_mmap
                0x00000000004adda0                _IO_wfile_jumps
 *fill*         0x00000000004ade48       0x18 
 __libc_IO_vtables
                0x00000000004ade60      0x228 /usr/lib/gcc/x86_64-linux-gnu/10/../../../x86_64-linux-gnu/libc.a(fileops.o)
                0x00000000004ade60                _IO_file_jumps_maybe_mmap
                0x00000000004adf20                _IO_file_jumps_mmap
                0x00000000004adfe0                _IO_file_jumps
 *fill*         0x00000000004ae088       0x18 
 __libc_IO_vtables
                0x00000000004ae0a0       0xa8 /usr/lib/gcc/x86_64-linux-gnu/10/../../../x86_64-linux-gnu/libc.a(strops.o)
                0x00000000004ae0a0                _IO_str_jumps
 *fill*         0x00000000004ae148       0x18 
 __libc_IO_vtables
                0x00000000004ae160       0xa8 /usr/lib/gcc/x86_64-linux-gnu/10/../../../x86_64-linux-gnu/libc.a(vfwprintf-internal.o)

__libc_atexit   0x00000000004ae208        0x8
 __libc_atexit  0x00000000004ae208        0x8 /usr/lib/gcc/x86_64-linux-gnu/10/../../../x86_64-linux-gnu/libc.a(genops.o)

.data1
 *(.data1)
                0x00000000004ae210                _edata = .
                [!provide]                        PROVIDE (edata = .)
                0x00000000004ae210                . = .
                0x00000000004ae210                __bss_start = .

.bss            0x00000000004ae220     0x1780
 *(.dynbss)
 *(.bss .bss.* .gnu.linkonce.b.*)
 .bss           0x00000000004ae220        0x0 /usr/lib/gcc/x86_64-linux-gnu/10/../../../x86_64-linux-gnu/crt1.o
 .bss           0x00000000004ae220        0x0 /usr/lib/gcc/x86_64-linux-gnu/10/../../../x86_64-linux-gnu/crti.o
 .bss           0x00000000004ae220       0x50 /usr/lib/gcc/x86_64-linux-gnu/10/crtbeginT.o
 .bss           0x00000000004ae270        0x0 ropex.o
 .bss           0x00000000004ae270        0x0 gadget.o
 .bss           0x00000000004ae270        0x0 /usr/lib/gcc/x86_64-linux-gnu/10/../../../x86_64-linux-gnu/libc.a(libc-start.o)
 .bss           0x00000000004ae270        0x0 /usr/lib/gcc/x86_64-linux-gnu/10/../../../x86_64-linux-gnu/libc.a(check_fds.o)
 *fill*         0x00000000004ae270       0x10 
 .bss           0x00000000004ae280      0x870 /usr/lib/gcc/x86_64-linux-gnu/10/../../../x86_64-linux-gnu/libc.a(libc-tls.o)
                0x00000000004ae280                _dl_tls_generation
                0x00000000004ae288                _dl_tls_static_optional
                0x00000000004ae290                _dl_tls_static_surplus
                0x00000000004ae298                _dl_tls_static_align
                0x00000000004ae2a0                _dl_tls_static_used
                0x00000000004ae2a8                _dl_tls_static_size
                0x00000000004ae2b0                _dl_tls_static_nelem
                0x00000000004ae2b8                _dl_tls_dtv_slotinfo_list
                0x00000000004ae2c0                _dl_tls_dtv_gaps
                0x00000000004ae2c8                _dl_tls_max_dtv_idx
                0x00000000004ae2e0                _dl_static_dtv
 .bss           0x00000000004aeaf0        0x0 /usr/lib/gcc/x86_64-linux-gnu/10/../../../x86_64-linux-gnu/libc.a(elf-init.o)
 .bss           0x00000000004aeaf0        0x0 /usr/lib/gcc/x86_64-linux-gnu/10/../../../x86_64-linux-gnu/libc.a(errno.o)
 .bss           0x00000000004aeaf0        0x0 /usr/lib/gcc/x86_64-linux-gnu/10/../../../x86_64-linux-gnu/libc.a(assert.o)
 .bss           0x00000000004aeaf0        0x0 /usr/lib/gcc/x86_64-linux-gnu/10/../../../x86_64-linux-gnu/libc.a(dcgettext.o)
 *fill*         0x00000000004aeaf0       0x10 
 .bss           0x00000000004aeb00       0xb8 /usr/lib/gcc/x86_64-linux-gnu/10/../../../x86_64-linux-gnu/libc.a(dcigettext.o)
                0x00000000004aeb00                _nl_state_lock
                0x00000000004aeb38                _nl_domain_bindings
 *fill*         0x00000000004aebb8        0x8 
 .bss           0x00000000004aebc0       0x40 /usr/lib/gcc/x86_64-linux-gnu/10/../../../x86_64-linux-gnu/libc.a(finddomain.o)
 .bss           0x00000000004aec00       0x20 /usr/lib/gcc/x86_64-linux-gnu/10/../../../x86_64-linux-gnu/libc.a(loadmsgcat.o)
                0x00000000004aec00                _nl_msg_cat_cntr
 .bss           0x00000000004aec20       0x2c /usr/lib/gcc/x86_64-linux-gnu/10/../../../x86_64-linux-gnu/libc.a(localealias.o)
 .bss           0x00000000004aec4c        0x0 /usr/lib/gcc/x86_64-linux-gnu/10/../../../x86_64-linux-gnu/libc.a(l10nflist.o)
 .bss           0x00000000004aec4c        0x0 /usr/lib/gcc/x86_64-linux-gnu/10/../../../x86_64-linux-gnu/libc.a(explodename.o)
 .bss           0x00000000004aec4c        0x0 /usr/lib/gcc/x86_64-linux-gnu/10/../../../x86_64-linux-gnu/libc.a(plural.o)
 .bss           0x00000000004aec4c        0x0 /usr/lib/gcc/x86_64-linux-gnu/10/../../../x86_64-linux-gnu/libc.a(plural-exp.o)
 .bss           0x00000000004aec4c        0x0 /usr/lib/gcc/x86_64-linux-gnu/10/../../../x86_64-linux-gnu/libc.a(hash-string.o)
 .bss           0x00000000004aec4c        0x0 /usr/lib/gcc/x86_64-linux-gnu/10/../../../x86_64-linux-gnu/libc.a(bsd-_setjmp.o)
 .bss           0x00000000004aec4c        0x0 /usr/lib/gcc/x86_64-linux-gnu/10/../../../x86_64-linux-gnu/libc.a(raise.o)
 *fill*         0x00000000004aec4c        0x4 
 .bss           0x00000000004aec50       0x24 /usr/lib/gcc/x86_64-linux-gnu/10/../../../x86_64-linux-gnu/libc.a(abort.o)
                0x00000000004aec50                __abort_msg
 *fill*         0x00000000004aec74        0x4 
 .bss           0x00000000004aec78        0xc /usr/lib/gcc/x86_64-linux-gnu/10/../../../x86_64-linux-gnu/libc.a(msort.o)
 .bss           0x00000000004aec84        0x0 /usr/lib/gcc/x86_64-linux-gnu/10/../../../x86_64-linux-gnu/libc.a(getenv.o)
 .bss           0x00000000004aec84        0x1 /usr/lib/gcc/x86_64-linux-gnu/10/../../../x86_64-linux-gnu/libc.a(exit.o)
                0x00000000004aec84                __exit_funcs_done
 *fill*         0x00000000004aec85       0x1b 
 .bss           0x00000000004aeca0      0x430 /usr/lib/gcc/x86_64-linux-gnu/10/../../../x86_64-linux-gnu/libc.a(cxa_atexit.o)
                0x00000000004aeca0                __new_exitfn_called
                0x00000000004aeca8                __exit_funcs_lock
 .bss           0x00000000004af0d0        0x0 /usr/lib/gcc/x86_64-linux-gnu/10/../../../x86_64-linux-gnu/libc.a(strtoul.o)
 .bss           0x00000000004af0d0        0x0 /usr/lib/gcc/x86_64-linux-gnu/10/../../../x86_64-linux-gnu/libc.a(strtoul_l.o)
 .bss           0x00000000004af0d0        0x0 /usr/lib/gcc/x86_64-linux-gnu/10/../../../x86_64-linux-gnu/libc.a(grouping.o)
 .bss           0x00000000004af0d0        0x0 /usr/lib/gcc/x86_64-linux-gnu/10/../../../x86_64-linux-gnu/libc.a(fprintf.o)
 .bss           0x00000000004af0d0        0x0 /usr/lib/gcc/x86_64-linux-gnu/10/../../../x86_64-linux-gnu/libc.a(asprintf.o)
 .bss           0x00000000004af0d0        0x0 /usr/lib/gcc/x86_64-linux-gnu/10/../../../x86_64-linux-gnu/libc.a(vfprintf-internal.o)
 .bss           0x00000000004af0d0        0x0 /usr/lib/gcc/x86_64-linux-gnu/10/../../../x86_64-linux-gnu/libc.a(printf-parsemb.o)
 .bss           0x00000000004af0d0        0x0 /usr/lib/gcc/x86_64-linux-gnu/10/../../../x86_64-linux-gnu/libc.a(fxprintf.o)
 .bss           0x00000000004af0d0        0x0 /usr/lib/gcc/x86_64-linux-gnu/10/../../../x86_64-linux-gnu/libc.a(iofclose.o)
 .bss           0x00000000004af0d0        0x0 /usr/lib/gcc/x86_64-linux-gnu/10/../../../x86_64-linux-gnu/libc.a(iofflush.o)
 .bss           0x00000000004af0d0        0x0 /usr/lib/gcc/x86_64-linux-gnu/10/../../../x86_64-linux-gnu/libc.a(iofopen.o)
 .bss           0x00000000004af0d0        0x0 /usr/lib/gcc/x86_64-linux-gnu/10/../../../x86_64-linux-gnu/libc.a(iopadn.o)
 .bss           0x00000000004af0d0        0x0 /usr/lib/gcc/x86_64-linux-gnu/10/../../../x86_64-linux-gnu/libc.a(ioputs.o)
 .bss           0x00000000004af0d0        0x0 /usr/lib/gcc/x86_64-linux-gnu/10/../../../x86_64-linux-gnu/libc.a(wfileops.o)
 .bss           0x00000000004af0d0        0x0 /usr/lib/gcc/x86_64-linux-gnu/10/../../../x86_64-linux-gnu/libc.a(iofwide.o)
 .bss           0x00000000004af0d0        0x0 /usr/lib/gcc/x86_64-linux-gnu/10/../../../x86_64-linux-gnu/libc.a(getc.o)
 .bss           0x00000000004af0d0        0x0 /usr/lib/gcc/x86_64-linux-gnu/10/../../../x86_64-linux-gnu/libc.a(vasprintf.o)
 .bss           0x00000000004af0d0        0x0 /usr/lib/gcc/x86_64-linux-gnu/10/../../../x86_64-linux-gnu/libc.a(libc_fatal.o)
 .bss           0x00000000004af0d0        0x0 /usr/lib/gcc/x86_64-linux-gnu/10/../../../x86_64-linux-gnu/libc.a(vtables.o)
 .bss           0x00000000004af0d0        0x0 /usr/lib/gcc/x86_64-linux-gnu/10/../../../x86_64-linux-gnu/libc.a(iofgets_u.o)
 .bss           0x00000000004af0d0        0x0 /usr/lib/gcc/x86_64-linux-gnu/10/../../../x86_64-linux-gnu/libc.a(fileops.o)
 .bss           0x00000000004af0d0       0x30 /usr/lib/gcc/x86_64-linux-gnu/10/../../../x86_64-linux-gnu/libc.a(genops.o)
 .bss           0x00000000004af100       0x30 /usr/lib/gcc/x86_64-linux-gnu/10/../../../x86_64-linux-gnu/libc.a(stdfiles.o)
 .bss           0x00000000004af130        0x0 /usr/lib/gcc/x86_64-linux-gnu/10/../../../x86_64-linux-gnu/libc.a(stdio.o)
 .bss           0x00000000004af130        0x0 /usr/lib/gcc/x86_64-linux-gnu/10/../../../x86_64-linux-gnu/libc.a(strops.o)
 .bss           0x00000000004af130        0x0 /usr/lib/gcc/x86_64-linux-gnu/10/../../../x86_64-linux-gnu/libc.a(alloca_cutoff.o)
 .bss           0x00000000004af130        0x0 /usr/lib/gcc/x86_64-linux-gnu/10/../../../x86_64-linux-gnu/libc.a(libc-lowlevellock.o)
 .bss           0x00000000004af130       0x50 /usr/lib/gcc/x86_64-linux-gnu/10/../../../x86_64-linux-gnu/libc.a(malloc.o)
                0x00000000004af130                __after_morecore_hook
                0x00000000004af138                __free_hook
 .bss           0x00000000004af180        0x0 /usr/lib/gcc/x86_64-linux-gnu/10/../../../x86_64-linux-gnu/libc.a(morecore.o)
 .bss           0x00000000004af180        0x0 /usr/lib/gcc/x86_64-linux-gnu/10/../../../x86_64-linux-gnu/libc.a(scratch_buffer_grow_preserve.o)
 .bss           0x00000000004af180        0x0 /usr/lib/gcc/x86_64-linux-gnu/10/../../../x86_64-linux-gnu/libc.a(scratch_buffer_set_array_size.o)
 .bss           0x00000000004af180        0x0 /usr/lib/gcc/x86_64-linux-gnu/10/../../../x86_64-linux-gnu/libc.a(strchr.o)
 .bss           0x00000000004af180        0x0 /usr/lib/gcc/x86_64-linux-gnu/10/../../../x86_64-linux-gnu/libc.a(strcmp.o)
 .bss           0x00000000004af180        0x0 /usr/lib/gcc/x86_64-linux-gnu/10/../../../x86_64-linux-gnu/libc.a(strcpy.o)
 .bss           0x00000000004af180        0x0 /usr/lib/gcc/x86_64-linux-gnu/10/../../../x86_64-linux-gnu/libc.a(strcspn.o)
 .bss           0x00000000004af180        0x0 /usr/lib/gcc/x86_64-linux-gnu/10/../../../x86_64-linux-gnu/libc.a(strdup.o)
 .bss           0x00000000004af180        0x0 /usr/lib/gcc/x86_64-linux-gnu/10/../../../x86_64-linux-gnu/libc.a(_strerror.o)
 .bss           0x00000000004af180        0x0 /usr/lib/gcc/x86_64-linux-gnu/10/../../../x86_64-linux-gnu/libc.a(strlen.o)
 .bss           0x00000000004af180        0x0 /usr/lib/gcc/x86_64-linux-gnu/10/../../../x86_64-linux-gnu/libc.a(strnlen.o)
 .bss           0x00000000004af180        0x0 /usr/lib/gcc/x86_64-linux-gnu/10/../../../x86_64-linux-gnu/libc.a(strncmp.o)
 .bss           0x00000000004af180        0x0 /usr/lib/gcc/x86_64-linux-gnu/10/../../../x86_64-linux-gnu/libc.a(strstr.o)
 .bss           0x00000000004af180        0x0 /usr/lib/gcc/x86_64-linux-gnu/10/../../../x86_64-linux-gnu/libc.a(memcmp.o)
 .bss           0x00000000004af180        0x0 /usr/lib/gcc/x86_64-linux-gnu/10/../../../x86_64-linux-gnu/libc.a(memmove.o)
 .bss           0x00000000004af180        0x0 /usr/lib/gcc/x86_64-linux-gnu/10/../../../x86_64-linux-gnu/libc.a(memset.o)
 .bss           0x00000000004af180        0x0 /usr/lib/gcc/x86_64-linux-gnu/10/../../../x86_64-linux-gnu/libc.a(mempcpy.o)
 .bss           0x00000000004af180        0x0 /usr/lib/gcc/x86_64-linux-gnu/10/../../../x86_64-linux-gnu/libc.a(stpcpy.o)
 .bss           0x00000000004af180        0x0 /usr/lib/gcc/x86_64-linux-gnu/10/../../../x86_64-linux-gnu/libc.a(strcasecmp_l.o)
 .bss           0x00000000004af180        0x0 /usr/lib/gcc/x86_64-linux-gnu/10/../../../x86_64-linux-gnu/libc.a(memcpy.o)
 .bss           0x00000000004af180        0x0 /usr/lib/gcc/x86_64-linux-gnu/10/../../../x86_64-linux-gnu/libc.a(rawmemchr.o)
 .bss           0x00000000004af180        0x0 /usr/lib/gcc/x86_64-linux-gnu/10/../../../x86_64-linux-gnu/libc.a(strchrnul.o)
 .bss           0x00000000004af180        0x0 /usr/lib/gcc/x86_64-linux-gnu/10/../../../x86_64-linux-gnu/libc.a(strcmp-sse2.o)
 .bss           0x00000000004af180        0x0 /usr/lib/gcc/x86_64-linux-gnu/10/../../../x86_64-linux-gnu/libc.a(strcmp-sse2-unaligned.o)
 .bss           0x00000000004af180        0x0 /usr/lib/gcc/x86_64-linux-gnu/10/../../../x86_64-linux-gnu/libc.a(strcmp-ssse3.o)
 .bss           0x00000000004af180        0x0 /usr/lib/gcc/x86_64-linux-gnu/10/../../../x86_64-linux-gnu/libc.a(strcmp-avx2.o)
 .bss           0x00000000004af180        0x0 /usr/lib/gcc/x86_64-linux-gnu/10/../../../x86_64-linux-gnu/libc.a(strncmp-sse2.o)
 .bss           0x00000000004af180        0x0 /usr/lib/gcc/x86_64-linux-gnu/10/../../../x86_64-linux-gnu/libc.a(strncmp-ssse3.o)
 .bss           0x00000000004af180        0x0 /usr/lib/gcc/x86_64-linux-gnu/10/../../../x86_64-linux-gnu/libc.a(strncmp-sse4_2.o)
 .bss           0x00000000004af180        0x0 /usr/lib/gcc/x86_64-linux-gnu/10/../../../x86_64-linux-gnu/libc.a(strncmp-avx2.o)
 .bss           0x00000000004af180        0x0 /usr/lib/gcc/x86_64-linux-gnu/10/../../../x86_64-linux-gnu/libc.a(rawmemchr-sse2.o)
 .bss           0x00000000004af180        0x0 /usr/lib/gcc/x86_64-linux-gnu/10/../../../x86_64-linux-gnu/libc.a(rawmemchr-avx2.o)
 .bss           0x00000000004af180        0x0 /usr/lib/gcc/x86_64-linux-gnu/10/../../../x86_64-linux-gnu/libc.a(memcmp-sse2.o)
 .bss           0x00000000004af180        0x0 /usr/lib/gcc/x86_64-linux-gnu/10/../../../x86_64-linux-gnu/libc.a(memcmp-avx2-movbe.o)
 .bss           0x00000000004af180        0x0 /usr/lib/gcc/x86_64-linux-gnu/10/../../../x86_64-linux-gnu/libc.a(memcmp-sse4.o)
 .bss           0x00000000004af180        0x0 /usr/lib/gcc/x86_64-linux-gnu/10/../../../x86_64-linux-gnu/libc.a(memcpy-ssse3.o)
 .bss           0x00000000004af180        0x0 /usr/lib/gcc/x86_64-linux-gnu/10/../../../x86_64-linux-gnu/libc.a(memmove-ssse3.o)
 .bss           0x00000000004af180        0x0 /usr/lib/gcc/x86_64-linux-gnu/10/../../../x86_64-linux-gnu/libc.a(memcpy-ssse3-back.o)
 .bss           0x00000000004af180        0x0 /usr/lib/gcc/x86_64-linux-gnu/10/../../../x86_64-linux-gnu/libc.a(memmove-ssse3-back.o)
 .bss           0x00000000004af180        0x0 /usr/lib/gcc/x86_64-linux-gnu/10/../../../x86_64-linux-gnu/libc.a(memmove-avx512-no-vzeroupper.o)
 .bss           0x00000000004af180        0x0 /usr/lib/gcc/x86_64-linux-gnu/10/../../../x86_64-linux-gnu/libc.a(strcasecmp_l-sse2.o)
 .bss           0x00000000004af180        0x0 /usr/lib/gcc/x86_64-linux-gnu/10/../../../x86_64-linux-gnu/libc.a(strcasecmp_l-ssse3.o)
 .bss           0x00000000004af180        0x0 /usr/lib/gcc/x86_64-linux-gnu/10/../../../x86_64-linux-gnu/libc.a(strcasecmp_l-sse4_2.o)
 .bss           0x00000000004af180        0x0 /usr/lib/gcc/x86_64-linux-gnu/10/../../../x86_64-linux-gnu/libc.a(strcasecmp_l-avx.o)
 .bss           0x00000000004af180        0x0 /usr/lib/gcc/x86_64-linux-gnu/10/../../../x86_64-linux-gnu/libc.a(strchr-sse2.o)
 .bss           0x00000000004af180        0x0 /usr/lib/gcc/x86_64-linux-gnu/10/../../../x86_64-linux-gnu/libc.a(strchrnul-sse2.o)
 .bss           0x00000000004af180        0x0 /usr/lib/gcc/x86_64-linux-gnu/10/../../../x86_64-linux-gnu/libc.a(strchr-avx2.o)
 .bss           0x00000000004af180        0x0 /usr/lib/gcc/x86_64-linux-gnu/10/../../../x86_64-linux-gnu/libc.a(strchrnul-avx2.o)
 .bss           0x00000000004af180        0x0 /usr/lib/gcc/x86_64-linux-gnu/10/../../../x86_64-linux-gnu/libc.a(strlen-sse2.o)
 .bss           0x00000000004af180        0x0 /usr/lib/gcc/x86_64-linux-gnu/10/../../../x86_64-linux-gnu/libc.a(strnlen-sse2.o)
 .bss           0x00000000004af180        0x0 /usr/lib/gcc/x86_64-linux-gnu/10/../../../x86_64-linux-gnu/libc.a(strlen-avx2.o)
 .bss           0x00000000004af180        0x0 /usr/lib/gcc/x86_64-linux-gnu/10/../../../x86_64-linux-gnu/libc.a(strnlen-avx2.o)
 .bss           0x00000000004af180        0x0 /usr/lib/gcc/x86_64-linux-gnu/10/../../../x86_64-linux-gnu/libc.a(strcpy-avx2.o)
 .bss           0x00000000004af180        0x0 /usr/lib/gcc/x86_64-linux-gnu/10/../../../x86_64-linux-gnu/libc.a(strcpy-sse2.o)
 .bss           0x00000000004af180        0x0 /usr/lib/gcc/x86_64-linux-gnu/10/../../../x86_64-linux-gnu/libc.a(stpcpy-sse2.o)
 .bss           0x00000000004af180        0x0 /usr/lib/gcc/x86_64-linux-gnu/10/../../../x86_64-linux-gnu/libc.a(strcpy-ssse3.o)
 .bss           0x00000000004af180        0x0 /usr/lib/gcc/x86_64-linux-gnu/10/../../../x86_64-linux-gnu/libc.a(stpcpy-ssse3.o)
 .bss           0x00000000004af180        0x0 /usr/lib/gcc/x86_64-linux-gnu/10/../../../x86_64-linux-gnu/libc.a(strcpy-sse2-unaligned.o)
 .bss           0x00000000004af180        0x0 /usr/lib/gcc/x86_64-linux-gnu/10/../../../x86_64-linux-gnu/libc.a(stpcpy-sse2-unaligned.o)
 .bss           0x00000000004af180        0x0 /usr/lib/gcc/x86_64-linux-gnu/10/../../../x86_64-linux-gnu/libc.a(stpcpy-avx2.o)
 .bss           0x00000000004af180        0x0 /usr/lib/gcc/x86_64-linux-gnu/10/../../../x86_64-linux-gnu/libc.a(strchr-sse2-no-bsf.o)
 .bss           0x00000000004af180        0x0 /usr/lib/gcc/x86_64-linux-gnu/10/../../../x86_64-linux-gnu/libc.a(memcmp-ssse3.o)
 .bss           0x00000000004af180        0x0 /usr/lib/gcc/x86_64-linux-gnu/10/../../../x86_64-linux-gnu/libc.a(strstr-sse2-unaligned.o)
 .bss           0x00000000004af180        0x0 /usr/lib/gcc/x86_64-linux-gnu/10/../../../x86_64-linux-gnu/libc.a(strcspn-sse2.o)
 .bss           0x00000000004af180        0x0 /usr/lib/gcc/x86_64-linux-gnu/10/../../../x86_64-linux-gnu/libc.a(strcspn-c.o)
 .bss           0x00000000004af180        0x0 /usr/lib/gcc/x86_64-linux-gnu/10/../../../x86_64-linux-gnu/libc.a(varshift.o)
 .bss           0x00000000004af180        0x0 /usr/lib/gcc/x86_64-linux-gnu/10/../../../x86_64-linux-gnu/libc.a(memset-avx512-no-vzeroupper.o)
 .bss           0x00000000004af180        0x0 /usr/lib/gcc/x86_64-linux-gnu/10/../../../x86_64-linux-gnu/libc.a(memmove-sse2-unaligned-erms.o)
 .bss           0x00000000004af180        0x0 /usr/lib/gcc/x86_64-linux-gnu/10/../../../x86_64-linux-gnu/libc.a(memmove-avx-unaligned-erms.o)
 .bss           0x00000000004af180        0x0 /usr/lib/gcc/x86_64-linux-gnu/10/../../../x86_64-linux-gnu/libc.a(memmove-avx512-unaligned-erms.o)
 .bss           0x00000000004af180        0x0 /usr/lib/gcc/x86_64-linux-gnu/10/../../../x86_64-linux-gnu/libc.a(memset-sse2-unaligned-erms.o)
 .bss           0x00000000004af180        0x0 /usr/lib/gcc/x86_64-linux-gnu/10/../../../x86_64-linux-gnu/libc.a(memset-avx2-unaligned-erms.o)
 .bss           0x00000000004af180        0x0 /usr/lib/gcc/x86_64-linux-gnu/10/../../../x86_64-linux-gnu/libc.a(memset-avx512-unaligned-erms.o)
 .bss           0x00000000004af180       0x10 /usr/lib/gcc/x86_64-linux-gnu/10/../../../x86_64-linux-gnu/libc.a(cacheinfo.o)
                0x00000000004af180                __x86_prefetchw
                0x00000000004af188                __x86_shared_non_temporal_threshold
 .bss           0x00000000004af190        0x0 /usr/lib/gcc/x86_64-linux-gnu/10/../../../x86_64-linux-gnu/libc.a(strcasecmp_l-nonascii.o)
 .bss           0x00000000004af190        0x0 /usr/lib/gcc/x86_64-linux-gnu/10/../../../x86_64-linux-gnu/libc.a(wmempcpy.o)
 .bss           0x00000000004af190        0x8 /usr/lib/gcc/x86_64-linux-gnu/10/../../../x86_64-linux-gnu/libc.a(wcrtomb.o)
 .bss           0x00000000004af198        0x8 /usr/lib/gcc/x86_64-linux-gnu/10/../../../x86_64-linux-gnu/libc.a(mbsrtowcs.o)
 .bss           0x00000000004af1a0        0x8 /usr/lib/gcc/x86_64-linux-gnu/10/../../../x86_64-linux-gnu/libc.a(wcsrtombs.o)
 .bss           0x00000000004af1a8        0x0 /usr/lib/gcc/x86_64-linux-gnu/10/../../../x86_64-linux-gnu/libc.a(wcsnlen.o)
 .bss           0x00000000004af1a8        0x0 /usr/lib/gcc/x86_64-linux-gnu/10/../../../x86_64-linux-gnu/libc.a(wcsmbsload.o)
 .bss           0x00000000004af1a8        0x0 /usr/lib/gcc/x86_64-linux-gnu/10/../../../x86_64-linux-gnu/libc.a(mbsrtowcs_l.o)
 .bss           0x00000000004af1a8        0x0 /usr/lib/gcc/x86_64-linux-gnu/10/../../../x86_64-linux-gnu/libc.a(wcsnlen-sse4_1.o)
 .bss           0x00000000004af1a8        0x0 /usr/lib/gcc/x86_64-linux-gnu/10/../../../x86_64-linux-gnu/libc.a(wcsnlen-c.o)
 .bss           0x00000000004af1a8        0x0 /usr/lib/gcc/x86_64-linux-gnu/10/../../../x86_64-linux-gnu/libc.a(wcsnlen-avx2.o)
 .bss           0x00000000004af1a8        0x0 /usr/lib/gcc/x86_64-linux-gnu/10/../../../x86_64-linux-gnu/libc.a(_exit.o)
 .bss           0x00000000004af1a8        0x0 /usr/lib/gcc/x86_64-linux-gnu/10/../../../x86_64-linux-gnu/libc.a(sysconf.o)
 .bss           0x00000000004af1a8        0x0 /usr/lib/gcc/x86_64-linux-gnu/10/../../../x86_64-linux-gnu/libc.a(sched_yield.o)
 .bss           0x00000000004af1a8        0x0 /usr/lib/gcc/x86_64-linux-gnu/10/../../../x86_64-linux-gnu/libc.a(get_child_max.o)
 .bss           0x00000000004af1a8        0x8 /usr/lib/gcc/x86_64-linux-gnu/10/../../../x86_64-linux-gnu/libc.a(environ.o)
                0x00000000004af1a8                _environ
                0x00000000004af1a8                __environ
                0x00000000004af1a8                environ
 .bss           0x00000000004af1b0        0x0 /usr/lib/gcc/x86_64-linux-gnu/10/../../../x86_64-linux-gnu/libc.a(xstat.o)
 .bss           0x00000000004af1b0        0x0 /usr/lib/gcc/x86_64-linux-gnu/10/../../../x86_64-linux-gnu/libc.a(fxstat.o)
 .bss           0x00000000004af1b0        0x0 /usr/lib/gcc/x86_64-linux-gnu/10/../../../x86_64-linux-gnu/libc.a(open64.o)
 .bss           0x00000000004af1b0        0x0 /usr/lib/gcc/x86_64-linux-gnu/10/../../../x86_64-linux-gnu/libc.a(read.o)
 .bss           0x00000000004af1b0        0x0 /usr/lib/gcc/x86_64-linux-gnu/10/../../../x86_64-linux-gnu/libc.a(write.o)
 .bss           0x00000000004af1b0        0x0 /usr/lib/gcc/x86_64-linux-gnu/10/../../../x86_64-linux-gnu/libc.a(lseek64.o)
 .bss           0x00000000004af1b0        0x0 /usr/lib/gcc/x86_64-linux-gnu/10/../../../x86_64-linux-gnu/libc.a(getcwd.o)
 .bss           0x00000000004af1b0        0x0 /usr/lib/gcc/x86_64-linux-gnu/10/../../../x86_64-linux-gnu/libc.a(close_nocancel.o)
 .bss           0x00000000004af1b0        0x0 /usr/lib/gcc/x86_64-linux-gnu/10/../../../x86_64-linux-gnu/libc.a(fcntl_nocancel.o)
 .bss           0x00000000004af1b0        0x0 /usr/lib/gcc/x86_64-linux-gnu/10/../../../x86_64-linux-gnu/libc.a(open64_nocancel.o)
 .bss           0x00000000004af1b0        0x0 /usr/lib/gcc/x86_64-linux-gnu/10/../../../x86_64-linux-gnu/libc.a(openat64_nocancel.o)
 .bss           0x00000000004af1b0        0x0 /usr/lib/gcc/x86_64-linux-gnu/10/../../../x86_64-linux-gnu/libc.a(read_nocancel.o)
 .bss           0x00000000004af1b0        0x0 /usr/lib/gcc/x86_64-linux-gnu/10/../../../x86_64-linux-gnu/libc.a(write_nocancel.o)
 .bss           0x00000000004af1b0        0x0 /usr/lib/gcc/x86_64-linux-gnu/10/../../../x86_64-linux-gnu/libc.a(getrlimit64.o)
 .bss           0x00000000004af1b0        0x0 /usr/lib/gcc/x86_64-linux-gnu/10/../../../x86_64-linux-gnu/libc.a(sbrk.o)
 .bss           0x00000000004af1b0        0x0 /usr/lib/gcc/x86_64-linux-gnu/10/../../../x86_64-linux-gnu/libc.a(getpagesize.o)
 .bss           0x00000000004af1b0        0x0 /usr/lib/gcc/x86_64-linux-gnu/10/../../../x86_64-linux-gnu/libc.a(getdtsz.o)
 .bss           0x00000000004af1b0        0x0 /usr/lib/gcc/x86_64-linux-gnu/10/../../../x86_64-linux-gnu/libc.a(mmap64.o)
 .bss           0x00000000004af1b0        0x0 /usr/lib/gcc/x86_64-linux-gnu/10/../../../x86_64-linux-gnu/libc.a(munmap.o)
 .bss           0x00000000004af1b0        0x0 /usr/lib/gcc/x86_64-linux-gnu/10/../../../x86_64-linux-gnu/libc.a(mprotect.o)
 .bss           0x00000000004af1b0        0x0 /usr/lib/gcc/x86_64-linux-gnu/10/../../../x86_64-linux-gnu/libc.a(madvise.o)
 .bss           0x00000000004af1b0        0x0 /usr/lib/gcc/x86_64-linux-gnu/10/../../../x86_64-linux-gnu/libc.a(tsearch.o)
 .bss           0x00000000004af1b0        0x8 /usr/lib/gcc/x86_64-linux-gnu/10/../../../x86_64-linux-gnu/libc.a(getsysstats.o)
 .bss           0x00000000004af1b8        0x0 /usr/lib/gcc/x86_64-linux-gnu/10/../../../x86_64-linux-gnu/libc.a(getclktck.o)
 .bss           0x00000000004af1b8        0x0 /usr/lib/gcc/x86_64-linux-gnu/10/../../../x86_64-linux-gnu/libc.a(init-misc.o)
 .bss           0x00000000004af1b8        0x0 /usr/lib/gcc/x86_64-linux-gnu/10/../../../x86_64-linux-gnu/libc.a(mremap.o)
 .bss           0x00000000004af1b8        0x0 /usr/lib/gcc/x86_64-linux-gnu/10/../../../x86_64-linux-gnu/libc.a(sysinfo.o)
 .bss           0x00000000004af1b8        0x0 /usr/lib/gcc/x86_64-linux-gnu/10/../../../x86_64-linux-gnu/libc.a(wctrans.o)
 .bss           0x00000000004af1b8        0x0 /usr/lib/gcc/x86_64-linux-gnu/10/../../../x86_64-linux-gnu/libc.a(towctrans.o)
 .bss           0x00000000004af1b8        0x0 /usr/lib/gcc/x86_64-linux-gnu/10/../../../x86_64-linux-gnu/libc.a(chk_fail.o)
 .bss           0x00000000004af1b8        0x0 /usr/lib/gcc/x86_64-linux-gnu/10/../../../x86_64-linux-gnu/libc.a(readonly-area.o)
 .bss           0x00000000004af1b8        0x0 /usr/lib/gcc/x86_64-linux-gnu/10/../../../x86_64-linux-gnu/libc.a(stack_chk_fail.o)
 .bss           0x00000000004af1b8        0x0 /usr/lib/gcc/x86_64-linux-gnu/10/../../../x86_64-linux-gnu/libc.a(fortify_fail.o)
 *fill*         0x00000000004af1b8        0x8 
 .bss           0x00000000004af1c0       0x28 /usr/lib/gcc/x86_64-linux-gnu/10/../../../x86_64-linux-gnu/libc.a(dl-debug.o)
                0x00000000004af1c0                _r_debug
 .bss           0x00000000004af1e8        0x0 /usr/lib/gcc/x86_64-linux-gnu/10/../../../x86_64-linux-gnu/libc.a(dl-tls.o)
 .bss           0x00000000004af1e8        0x0 /usr/lib/gcc/x86_64-linux-gnu/10/../../../x86_64-linux-gnu/libc.a(dl-tunables.o)
 *fill*         0x00000000004af1e8       0x18 
 .bss           0x00000000004af200      0x1a0 /usr/lib/gcc/x86_64-linux-gnu/10/../../../x86_64-linux-gnu/libc.a(dl-support.o)
                0x00000000004af200                _dl_clktck
                0x00000000004af208                _dl_sysinfo_map
                0x00000000004af210                _dl_sysinfo_dso
                0x00000000004af218                _dl_scope_free_list
                0x00000000004af220                _dl_wait_lookup_done
                0x00000000004af228                _dl_hwcap2
                0x00000000004af230                _dl_hwcap
                0x00000000004af238                _dl_phnum
                0x00000000004af240                _dl_phdr
                0x00000000004af248                _dl_auxv
                0x00000000004af250                _dl_initfirst
                0x00000000004af258                _dl_init_all_dirs
                0x00000000004af260                _dl_all_dirs
                0x00000000004af268                _dl_osversion
                0x00000000004af26c                _dl_inhibit_cache
                0x00000000004af280                _dl_x86_cpu_features
                0x00000000004af330                _dl_x86_legacy_bitmap
                0x00000000004af340                _dl_x86_feature_1
                0x00000000004af348                _dl_bind_not
                0x00000000004af350                _dl_origin_path
                0x00000000004af358                _dl_profile_map
                0x00000000004af360                _dl_inhibit_rpath
                0x00000000004af368                _dl_profile_output
                0x00000000004af370                _dl_profile
                0x00000000004af378                _dl_verbose
                0x00000000004af37c                _dl_dynamic_weak
                0x00000000004af380                _dl_lazy
                0x00000000004af384                _dl_debug_mask
                0x00000000004af388                _dl_platformlen
                0x00000000004af390                _dl_platform
 .bss           0x00000000004af3a0        0x4 /usr/lib/gcc/x86_64-linux-gnu/10/../../../x86_64-linux-gnu/libc.a(enbl-secure.o)
                0x00000000004af3a0                __libc_enable_secure_decided
 .bss           0x00000000004af3a4        0x0 /usr/lib/gcc/x86_64-linux-gnu/10/../../../x86_64-linux-gnu/libc.a(dl-profstub.o)
 .bss           0x00000000004af3a4        0x0 /usr/lib/gcc/x86_64-linux-gnu/10/../../../x86_64-linux-gnu/libc.a(dl-sysdep.o)
 .bss           0x00000000004af3a4        0x0 /usr/lib/gcc/x86_64-linux-gnu/10/../../../x86_64-linux-gnu/libc.a(dl-error.o)
 *fill*         0x00000000004af3a4        0x4 
 .bss           0x00000000004af3a8        0xc /usr/lib/gcc/x86_64-linux-gnu/10/../../../x86_64-linux-gnu/libc.a(init-first.o)
                0x00000000004af3a8                __libc_argv
                0x00000000004af3b0                __libc_argc
 .bss           0x00000000004af3b4        0x0 /usr/lib/gcc/x86_64-linux-gnu/10/../../../x86_64-linux-gnu/libc.a(gconv_open.o)
 .bss           0x00000000004af3b4        0x0 /usr/lib/gcc/x86_64-linux-gnu/10/../../../x86_64-linux-gnu/libc.a(gconv.o)
 .bss           0x00000000004af3b4        0x0 /usr/lib/gcc/x86_64-linux-gnu/10/../../../x86_64-linux-gnu/libc.a(gconv_close.o)
 *fill*         0x00000000004af3b4        0x4 
 .bss           0x00000000004af3b8       0x20 /usr/lib/gcc/x86_64-linux-gnu/10/../../../x86_64-linux-gnu/libc.a(gconv_db.o)
                0x00000000004af3b8                __gconv_lock
                0x00000000004af3c0                __gconv_modules_db
                0x00000000004af3c8                __gconv_alias_db
 .bss           0x00000000004af3d8       0x20 /usr/lib/gcc/x86_64-linux-gnu/10/../../../x86_64-linux-gnu/libc.a(gconv_conf.o)
                0x00000000004af3d8                __gconv_path_envvar
                0x00000000004af3e0                __gconv_max_path_elem_len
                0x00000000004af3e8                __gconv_path_elem
 .bss           0x00000000004af3f8        0x0 /usr/lib/gcc/x86_64-linux-gnu/10/../../../x86_64-linux-gnu/libc.a(gconv_builtin.o)
 .bss           0x00000000004af3f8        0x0 /usr/lib/gcc/x86_64-linux-gnu/10/../../../x86_64-linux-gnu/libc.a(gconv_simple.o)
 .bss           0x00000000004af3f8        0x0 /usr/lib/gcc/x86_64-linux-gnu/10/../../../x86_64-linux-gnu/libc.a(gconv_trans.o)
 .bss           0x00000000004af3f8       0x18 /usr/lib/gcc/x86_64-linux-gnu/10/../../../x86_64-linux-gnu/libc.a(gconv_cache.o)
 .bss           0x00000000004af410        0x8 /usr/lib/gcc/x86_64-linux-gnu/10/../../../x86_64-linux-gnu/libc.a(gconv_dl.o)
 .bss           0x00000000004af418        0x0 /usr/lib/gcc/x86_64-linux-gnu/10/../../../x86_64-linux-gnu/libc.a(gconv_charset.o)
 *fill*         0x00000000004af418        0x8 
 .bss           0x00000000004af420       0x38 /usr/lib/gcc/x86_64-linux-gnu/10/../../../x86_64-linux-gnu/libc.a(setlocale.o)
                0x00000000004af420                __libc_setlocale_lock
 *fill*         0x00000000004af458        0x8 
 .bss           0x00000000004af460       0x68 /usr/lib/gcc/x86_64-linux-gnu/10/../../../x86_64-linux-gnu/libc.a(findlocale.o)
                0x00000000004af460                _nl_locale_file_list
 .bss           0x00000000004af4c8        0x0 /usr/lib/gcc/x86_64-linux-gnu/10/../../../x86_64-linux-gnu/libc.a(loadlocale.o)
 *fill*         0x00000000004af4c8       0x18 
 .bss           0x00000000004af4e0       0xd0 /usr/lib/gcc/x86_64-linux-gnu/10/../../../x86_64-linux-gnu/libc.a(loadarchive.o)
 .bss           0x00000000004af5b0        0x0 /usr/lib/gcc/x86_64-linux-gnu/10/../../../x86_64-linux-gnu/libc.a(lc-ctype.o)
 .bss           0x00000000004af5b0        0x0 /usr/lib/gcc/x86_64-linux-gnu/10/../../../x86_64-linux-gnu/libc.a(lc-numeric.o)
 .bss           0x00000000004af5b0        0x0 /usr/lib/gcc/x86_64-linux-gnu/10/../../../x86_64-linux-gnu/libc.a(C-ctype.o)
 .bss           0x00000000004af5b0        0x0 /usr/lib/gcc/x86_64-linux-gnu/10/../../../x86_64-linux-gnu/libc.a(SYS_libc.o)
 .bss           0x00000000004af5b0        0x0 /usr/lib/gcc/x86_64-linux-gnu/10/../../../x86_64-linux-gnu/libc.a(C_name.o)
 .bss           0x00000000004af5b0        0x0 /usr/lib/gcc/x86_64-linux-gnu/10/../../../x86_64-linux-gnu/libc.a(xlocale.o)
 .bss           0x00000000004af5b0        0x0 /usr/lib/gcc/x86_64-linux-gnu/10/../../../x86_64-linux-gnu/libc.a(localename.o)
 .bss           0x00000000004af5b0        0x0 /usr/lib/gcc/x86_64-linux-gnu/10/../../../x86_64-linux-gnu/libc.a(global-locale.o)
 .bss           0x00000000004af5b0        0x0 /usr/lib/gcc/x86_64-linux-gnu/10/../../../x86_64-linux-gnu/libc.a(ctype-info.o)
 .bss           0x00000000004af5b0        0x0 /usr/lib/gcc/x86_64-linux-gnu/10/../../../x86_64-linux-gnu/libc.a(setfpucw.o)
 .bss           0x00000000004af5b0        0x0 /usr/lib/gcc/x86_64-linux-gnu/10/../../../x86_64-linux-gnu/libc.a(fpu_control.o)
 .bss           0x00000000004af5b0        0x0 /usr/lib/gcc/x86_64-linux-gnu/10/../../../x86_64-linux-gnu/libc.a(setjmp.o)
 .bss           0x00000000004af5b0        0x0 /usr/lib/gcc/x86_64-linux-gnu/10/../../../x86_64-linux-gnu/libc.a(sigjmp.o)
 .bss           0x00000000004af5b0        0x0 /usr/lib/gcc/x86_64-linux-gnu/10/../../../x86_64-linux-gnu/libc.a(__longjmp.o)
 .bss           0x00000000004af5b0        0x0 /usr/lib/gcc/x86_64-linux-gnu/10/../../../x86_64-linux-gnu/libc.a(sigaction.o)
 .bss           0x00000000004af5b0        0x0 /usr/lib/gcc/x86_64-linux-gnu/10/../../../x86_64-linux-gnu/libc.a(sigprocmask.o)
 .bss           0x00000000004af5b0        0x0 /usr/lib/gcc/x86_64-linux-gnu/10/../../../x86_64-linux-gnu/libc.a(qsort.o)
 .bss           0x00000000004af5b0       0x14 /usr/lib/gcc/x86_64-linux-gnu/10/../../../x86_64-linux-gnu/libc.a(setenv.o)
 .bss           0x00000000004af5c4        0x0 /usr/lib/gcc/x86_64-linux-gnu/10/../../../x86_64-linux-gnu/libc.a(secure-getenv.o)
 .bss           0x00000000004af5c4        0x0 /usr/lib/gcc/x86_64-linux-gnu/10/../../../x86_64-linux-gnu/libc.a(strtol.o)
 .bss           0x00000000004af5c4        0x0 /usr/lib/gcc/x86_64-linux-gnu/10/../../../x86_64-linux-gnu/libc.a(strtol_l.o)
 .bss           0x00000000004af5c4        0x0 /usr/lib/gcc/x86_64-linux-gnu/10/../../../x86_64-linux-gnu/libc.a(_itoa.o)
 .bss           0x00000000004af5c4        0x0 /usr/lib/gcc/x86_64-linux-gnu/10/../../../x86_64-linux-gnu/libc.a(itoa-digits.o)
 .bss           0x00000000004af5c4        0x0 /usr/lib/gcc/x86_64-linux-gnu/10/../../../x86_64-linux-gnu/libc.a(itoa-udigits.o)
 .bss           0x00000000004af5c4        0x0 /usr/lib/gcc/x86_64-linux-gnu/10/../../../x86_64-linux-gnu/libc.a(printf_fp.o)
 *fill*         0x00000000004af5c4        0x4 
 .bss           0x00000000004af5c8        0xc /usr/lib/gcc/x86_64-linux-gnu/10/../../../x86_64-linux-gnu/libc.a(reg-printf.o)
                0x00000000004af5c8                __printf_function_table
 .bss           0x00000000004af5d4        0x0 /usr/lib/gcc/x86_64-linux-gnu/10/../../../x86_64-linux-gnu/libc.a(printf_fphex.o)
 *fill*         0x00000000004af5d4        0x4 
 .bss           0x00000000004af5d8       0x10 /usr/lib/gcc/x86_64-linux-gnu/10/../../../x86_64-linux-gnu/libc.a(reg-modifier.o)
                0x00000000004af5d8                __printf_modifier_table
 .bss           0x00000000004af5e8        0x4 /usr/lib/gcc/x86_64-linux-gnu/10/../../../x86_64-linux-gnu/libc.a(reg-type.o)
 .bss           0x00000000004af5ec        0x0 /usr/lib/gcc/x86_64-linux-gnu/10/../../../x86_64-linux-gnu/libc.a(funlockfile.o)
 .bss           0x00000000004af5ec        0x0 /usr/lib/gcc/x86_64-linux-gnu/10/../../../x86_64-linux-gnu/libc.a(vfwprintf-internal.o)
 .bss           0x00000000004af5ec        0x0 /usr/lib/gcc/x86_64-linux-gnu/10/../../../x86_64-linux-gnu/libc.a(errlist.o)
 .bss           0x00000000004af5ec        0x0 /usr/lib/gcc/x86_64-linux-gnu/10/../../../x86_64-linux-gnu/libc.a(printf-parsewc.o)
 .bss           0x00000000004af5ec        0x0 /usr/lib/gcc/x86_64-linux-gnu/10/../../../x86_64-linux-gnu/libc.a(filedoalloc.o)
 .bss           0x00000000004af5ec        0x0 /usr/lib/gcc/x86_64-linux-gnu/10/../../../x86_64-linux-gnu/libc.a(iofputs.o)
 .bss           0x00000000004af5ec        0x0 /usr/lib/gcc/x86_64-linux-gnu/10/../../../x86_64-linux-gnu/libc.a(wfiledoalloc.o)
 .bss           0x00000000004af5ec        0x0 /usr/lib/gcc/x86_64-linux-gnu/10/../../../x86_64-linux-gnu/libc.a(iofwrite.o)
 .bss           0x00000000004af5ec        0x0 /usr/lib/gcc/x86_64-linux-gnu/10/../../../x86_64-linux-gnu/libc.a(iogetdelim.o)
 .bss           0x00000000004af5ec        0x0 /usr/lib/gcc/x86_64-linux-gnu/10/../../../x86_64-linux-gnu/libc.a(iogetline.o)
 .bss           0x00000000004af5ec        0x0 /usr/lib/gcc/x86_64-linux-gnu/10/../../../x86_64-linux-gnu/libc.a(iowpadn.o)
 .bss           0x00000000004af5ec        0x0 /usr/lib/gcc/x86_64-linux-gnu/10/../../../x86_64-linux-gnu/libc.a(wgenops.o)
 .bss           0x00000000004af5ec        0x0 /usr/lib/gcc/x86_64-linux-gnu/10/../../../x86_64-linux-gnu/libc.a(libc-cancellation.o)
 .bss           0x00000000004af5ec        0x0 /usr/lib/gcc/x86_64-linux-gnu/10/../../../x86_64-linux-gnu/libc.a(strndup.o)
 .bss           0x00000000004af5ec        0x0 /usr/lib/gcc/x86_64-linux-gnu/10/../../../x86_64-linux-gnu/libc.a(strrchr.o)
 .bss           0x00000000004af5ec        0x0 /usr/lib/gcc/x86_64-linux-gnu/10/../../../x86_64-linux-gnu/libc.a(strtok_r.o)
 .bss           0x00000000004af5ec        0x0 /usr/lib/gcc/x86_64-linux-gnu/10/../../../x86_64-linux-gnu/libc.a(memchr.o)
 .bss           0x00000000004af5ec        0x0 /usr/lib/gcc/x86_64-linux-gnu/10/../../../x86_64-linux-gnu/libc.a(memmem.o)
 .bss           0x00000000004af5ec        0x0 /usr/lib/gcc/x86_64-linux-gnu/10/../../../x86_64-linux-gnu/libc.a(argz-ctsep.o)
 .bss           0x00000000004af5ec        0x0 /usr/lib/gcc/x86_64-linux-gnu/10/../../../x86_64-linux-gnu/libc.a(argz-addsep.o)
 .bss           0x00000000004af5ec        0x0 /usr/lib/gcc/x86_64-linux-gnu/10/../../../x86_64-linux-gnu/libc.a(memchr-sse2.o)
 .bss           0x00000000004af5ec        0x0 /usr/lib/gcc/x86_64-linux-gnu/10/../../../x86_64-linux-gnu/libc.a(memchr-avx2.o)
 .bss           0x00000000004af5ec        0x0 /usr/lib/gcc/x86_64-linux-gnu/10/../../../x86_64-linux-gnu/libc.a(strrchr-sse2.o)
 .bss           0x00000000004af5ec        0x0 /usr/lib/gcc/x86_64-linux-gnu/10/../../../x86_64-linux-gnu/libc.a(strrchr-avx2.o)
 .bss           0x00000000004af5ec        0x0 /usr/lib/gcc/x86_64-linux-gnu/10/../../../x86_64-linux-gnu/libc.a(wcslen.o)
 .bss           0x00000000004af5ec        0x0 /usr/lib/gcc/x86_64-linux-gnu/10/../../../x86_64-linux-gnu/libc.a(wmemchr.o)
 .bss           0x00000000004af5ec        0x0 /usr/lib/gcc/x86_64-linux-gnu/10/../../../x86_64-linux-gnu/libc.a(wmemcpy.o)
 .bss           0x00000000004af5ec        0x0 /usr/lib/gcc/x86_64-linux-gnu/10/../../../x86_64-linux-gnu/libc.a(wmemmove.o)
 .bss           0x00000000004af5ec        0x0 /usr/lib/gcc/x86_64-linux-gnu/10/../../../x86_64-linux-gnu/libc.a(wmemset.o)
 .bss           0x00000000004af5ec        0x0 /usr/lib/gcc/x86_64-linux-gnu/10/../../../x86_64-linux-gnu/libc.a(btowc.o)
 .bss           0x00000000004af5ec        0x0 /usr/lib/gcc/x86_64-linux-gnu/10/../../../x86_64-linux-gnu/libc.a(wcschrnul.o)
 .bss           0x00000000004af5ec        0x0 /usr/lib/gcc/x86_64-linux-gnu/10/../../../x86_64-linux-gnu/libc.a(wmemchr-sse2.o)
 .bss           0x00000000004af5ec        0x0 /usr/lib/gcc/x86_64-linux-gnu/10/../../../x86_64-linux-gnu/libc.a(wmemchr-avx2.o)
 .bss           0x00000000004af5ec        0x0 /usr/lib/gcc/x86_64-linux-gnu/10/../../../x86_64-linux-gnu/libc.a(wcslen-sse2.o)
 .bss           0x00000000004af5ec        0x0 /usr/lib/gcc/x86_64-linux-gnu/10/../../../x86_64-linux-gnu/libc.a(wcslen-avx2.o)
 .bss           0x00000000004af5ec        0x0 /usr/lib/gcc/x86_64-linux-gnu/10/../../../x86_64-linux-gnu/libc.a(clock_gettime.o)
 .bss           0x00000000004af5ec        0x0 /usr/lib/gcc/x86_64-linux-gnu/10/../../../x86_64-linux-gnu/libc.a(opendir.o)
 .bss           0x00000000004af5ec        0x0 /usr/lib/gcc/x86_64-linux-gnu/10/../../../x86_64-linux-gnu/libc.a(closedir.o)
 .bss           0x00000000004af5ec        0x0 /usr/lib/gcc/x86_64-linux-gnu/10/../../../x86_64-linux-gnu/libc.a(rewinddir.o)
 .bss           0x00000000004af5ec        0x0 /usr/lib/gcc/x86_64-linux-gnu/10/../../../x86_64-linux-gnu/libc.a(readdir64.o)
 .bss           0x00000000004af5ec        0x0 /usr/lib/gcc/x86_64-linux-gnu/10/../../../x86_64-linux-gnu/libc.a(fdopendir.o)
 .bss           0x00000000004af5ec        0x0 /usr/lib/gcc/x86_64-linux-gnu/10/../../../x86_64-linux-gnu/libc.a(uname.o)
 .bss           0x00000000004af5ec        0x0 /usr/lib/gcc/x86_64-linux-gnu/10/../../../x86_64-linux-gnu/libc.a(getuid.o)
 .bss           0x00000000004af5ec        0x0 /usr/lib/gcc/x86_64-linux-gnu/10/../../../x86_64-linux-gnu/libc.a(geteuid.o)
 .bss           0x00000000004af5ec        0x0 /usr/lib/gcc/x86_64-linux-gnu/10/../../../x86_64-linux-gnu/libc.a(getgid.o)
 .bss           0x00000000004af5ec        0x0 /usr/lib/gcc/x86_64-linux-gnu/10/../../../x86_64-linux-gnu/libc.a(getegid.o)
 .bss           0x00000000004af5ec        0x0 /usr/lib/gcc/x86_64-linux-gnu/10/../../../x86_64-linux-gnu/libc.a(lxstat.o)
 .bss           0x00000000004af5ec        0x0 /usr/lib/gcc/x86_64-linux-gnu/10/../../../x86_64-linux-gnu/libc.a(fxstatat.o)
 .bss           0x00000000004af5ec        0x0 /usr/lib/gcc/x86_64-linux-gnu/10/../../../x86_64-linux-gnu/libc.a(isatty.o)
 .bss           0x00000000004af5ec        0x0 /usr/lib/gcc/x86_64-linux-gnu/10/../../../x86_64-linux-gnu/libc.a(tcgetattr.o)
 *fill*         0x00000000004af5ec        0x4 
 .bss           0x00000000004af5f0        0x8 /usr/lib/gcc/x86_64-linux-gnu/10/../../../x86_64-linux-gnu/libc.a(brk.o)
                0x00000000004af5f0                __curbrk
 .bss           0x00000000004af5f8        0x8 /usr/lib/gcc/x86_64-linux-gnu/10/../../../x86_64-linux-gnu/libc.a(dl-load.o)
 .bss           0x00000000004af600        0x0 /usr/lib/gcc/x86_64-linux-gnu/10/../../../x86_64-linux-gnu/libc.a(dl-lookup.o)
 .bss           0x00000000004af600        0x0 /usr/lib/gcc/x86_64-linux-gnu/10/../../../x86_64-linux-gnu/libc.a(dl-object.o)
 .bss           0x00000000004af600        0x0 /usr/lib/gcc/x86_64-linux-gnu/10/../../../x86_64-linux-gnu/libc.a(dl-reloc.o)
 .bss           0x00000000004af600        0x0 /usr/lib/gcc/x86_64-linux-gnu/10/../../../x86_64-linux-gnu/libc.a(dl-hwcaps.o)
 .bss           0x00000000004af600        0x0 /usr/lib/gcc/x86_64-linux-gnu/10/../../../x86_64-linux-gnu/libc.a(dl-misc.o)
 .bss           0x00000000004af600       0x48 /usr/lib/gcc/x86_64-linux-gnu/10/../../../x86_64-linux-gnu/libc.a(dl-profile.o)
 .bss           0x00000000004af648        0x0 /usr/lib/gcc/x86_64-linux-gnu/10/../../../x86_64-linux-gnu/libc.a(dl-origin.o)
 .bss           0x00000000004af648        0x0 /usr/lib/gcc/x86_64-linux-gnu/10/../../../x86_64-linux-gnu/libc.a(dl-scope.o)
 .bss           0x00000000004af648        0x0 /usr/lib/gcc/x86_64-linux-gnu/10/../../../x86_64-linux-gnu/libc.a(dl-execstack.o)
 .bss           0x00000000004af648        0x0 /usr/lib/gcc/x86_64-linux-gnu/10/../../../x86_64-linux-gnu/libc.a(dl-trampoline.o)
 .bss           0x00000000004af648        0x0 /usr/lib/gcc/x86_64-linux-gnu/10/../../../x86_64-linux-gnu/libc.a(dl-exception.o)
 .bss           0x00000000004af648       0x18 /usr/lib/gcc/x86_64-linux-gnu/10/../../../x86_64-linux-gnu/libc.a(dl-cache.o)
 .bss           0x00000000004af660        0x0 /usr/lib/gcc/x86_64-linux-gnu/10/../../../x86_64-linux-gnu/libc.a(dl-tlsdesc.o)
 .bss           0x00000000004af660        0x0 /usr/lib/gcc/x86_64-linux-gnu/10/../../../x86_64-linux-gnu/libc.a(dl-libc.o)
 .bss           0x00000000004af660        0x0 /usr/lib/gcc/x86_64-linux-gnu/10/../../../x86_64-linux-gnu/libc.a(lc-monetary.o)
 .bss           0x00000000004af660        0x0 /usr/lib/gcc/x86_64-linux-gnu/10/../../../x86_64-linux-gnu/libc.a(C-messages.o)
 .bss           0x00000000004af660        0x0 /usr/lib/gcc/x86_64-linux-gnu/10/../../../x86_64-linux-gnu/libc.a(C-monetary.o)
 .bss           0x00000000004af660        0x0 /usr/lib/gcc/x86_64-linux-gnu/10/../../../x86_64-linux-gnu/libc.a(C-numeric.o)
 .bss           0x00000000004af660        0x0 /usr/lib/gcc/x86_64-linux-gnu/10/../../../x86_64-linux-gnu/libc.a(C-time.o)
 .bss           0x00000000004af660        0x0 /usr/lib/gcc/x86_64-linux-gnu/10/../../../x86_64-linux-gnu/libc.a(C-paper.o)
 .bss           0x00000000004af660        0x0 /usr/lib/gcc/x86_64-linux-gnu/10/../../../x86_64-linux-gnu/libc.a(C-name.o)
 .bss           0x00000000004af660        0x0 /usr/lib/gcc/x86_64-linux-gnu/10/../../../x86_64-linux-gnu/libc.a(C-address.o)
 .bss           0x00000000004af660        0x0 /usr/lib/gcc/x86_64-linux-gnu/10/../../../x86_64-linux-gnu/libc.a(C-telephone.o)
 .bss           0x00000000004af660        0x0 /usr/lib/gcc/x86_64-linux-gnu/10/../../../x86_64-linux-gnu/libc.a(C-measurement.o)
 .bss           0x00000000004af660        0x0 /usr/lib/gcc/x86_64-linux-gnu/10/../../../x86_64-linux-gnu/libc.a(C-identification.o)
 .bss           0x00000000004af660        0x0 /usr/lib/gcc/x86_64-linux-gnu/10/../../../x86_64-linux-gnu/libc.a(C-collate.o)
 .bss           0x00000000004af660        0x0 /usr/lib/gcc/x86_64-linux-gnu/10/../../../x86_64-linux-gnu/libc.a(cmp.o)
 .bss           0x00000000004af660        0x0 /usr/lib/gcc/x86_64-linux-gnu/10/../../../x86_64-linux-gnu/libc.a(divrem.o)
 .bss           0x00000000004af660        0x0 /usr/lib/gcc/x86_64-linux-gnu/10/../../../x86_64-linux-gnu/libc.a(lshift.o)
 .bss           0x00000000004af660        0x0 /usr/lib/gcc/x86_64-linux-gnu/10/../../../x86_64-linux-gnu/libc.a(rshift.o)
 .bss           0x00000000004af660        0x0 /usr/lib/gcc/x86_64-linux-gnu/10/../../../x86_64-linux-gnu/libc.a(mul.o)
 .bss           0x00000000004af660        0x0 /usr/lib/gcc/x86_64-linux-gnu/10/../../../x86_64-linux-gnu/libc.a(mul_1.o)
 .bss           0x00000000004af660        0x0 /usr/lib/gcc/x86_64-linux-gnu/10/../../../x86_64-linux-gnu/libc.a(mul_n.o)
 .bss           0x00000000004af660        0x0 /usr/lib/gcc/x86_64-linux-gnu/10/../../../x86_64-linux-gnu/libc.a(sub_n.o)
 .bss           0x00000000004af660        0x0 /usr/lib/gcc/x86_64-linux-gnu/10/../../../x86_64-linux-gnu/libc.a(submul_1.o)
 .bss           0x00000000004af660        0x0 /usr/lib/gcc/x86_64-linux-gnu/10/../../../x86_64-linux-gnu/libc.a(dbl2mpn.o)
 .bss           0x00000000004af660        0x0 /usr/lib/gcc/x86_64-linux-gnu/10/../../../x86_64-linux-gnu/libc.a(ldbl2mpn.o)
 .bss           0x00000000004af660        0x0 /usr/lib/gcc/x86_64-linux-gnu/10/../../../x86_64-linux-gnu/libc.a(float1282mpn.o)
 .bss           0x00000000004af660        0x0 /usr/lib/gcc/x86_64-linux-gnu/10/../../../x86_64-linux-gnu/libc.a(fpioconst.o)
 .bss           0x00000000004af660        0x0 /usr/lib/gcc/x86_64-linux-gnu/10/../../../x86_64-linux-gnu/libc.a(itowa-digits.o)
 .bss           0x00000000004af660       0x40 /usr/lib/gcc/x86_64-linux-gnu/10/../../../x86_64-linux-gnu/libc.a(sdlerror.o)
 .bss           0x00000000004af6a0        0x0 /usr/lib/gcc/x86_64-linux-gnu/10/../../../x86_64-linux-gnu/libc.a(sdladdr.o)
 .bss           0x00000000004af6a0        0x0 /usr/lib/gcc/x86_64-linux-gnu/10/../../../x86_64-linux-gnu/libc.a(sdladdr1.o)
 .bss           0x00000000004af6a0        0x0 /usr/lib/gcc/x86_64-linux-gnu/10/../../../x86_64-linux-gnu/libc.a(sdlinfo.o)
 .bss           0x00000000004af6a0        0x0 /usr/lib/gcc/x86_64-linux-gnu/10/../../../x86_64-linux-gnu/libc.a(sdlmopen.o)
 .bss           0x00000000004af6a0        0x0 /usr/lib/gcc/x86_64-linux-gnu/10/../../../x86_64-linux-gnu/libc.a(strerror.o)
 .bss           0x00000000004af6a0        0x0 /usr/lib/gcc/x86_64-linux-gnu/10/../../../x86_64-linux-gnu/libc.a(strspn.o)
 .bss           0x00000000004af6a0        0x0 /usr/lib/gcc/x86_64-linux-gnu/10/../../../x86_64-linux-gnu/libc.a(strsep.o)
 .bss           0x00000000004af6a0        0x0 /usr/lib/gcc/x86_64-linux-gnu/10/../../../x86_64-linux-gnu/libc.a(strspn-sse2.o)
 .bss           0x00000000004af6a0        0x0 /usr/lib/gcc/x86_64-linux-gnu/10/../../../x86_64-linux-gnu/libc.a(strspn-c.o)
 .bss           0x00000000004af6a0        0x0 /usr/lib/gcc/x86_64-linux-gnu/10/../../../x86_64-linux-gnu/libc.a(getdents64.o)
 .bss           0x00000000004af6a0        0x0 /usr/lib/gcc/x86_64-linux-gnu/10/../../../x86_64-linux-gnu/libc.a(getpid.o)
 .bss           0x00000000004af6a0        0x0 /usr/lib/gcc/x86_64-linux-gnu/10/../../../x86_64-linux-gnu/libc.a(pread64_nocancel.o)
 .bss           0x00000000004af6a0       0xe0 /usr/lib/gcc/x86_64-linux-gnu/10/../../../x86_64-linux-gnu/libc.a(profil.o)
 .bss           0x00000000004af780        0x0 /usr/lib/gcc/x86_64-linux-gnu/10/../../../x86_64-linux-gnu/libc.a(prof-freq.o)
 .bss           0x00000000004af780        0x0 /usr/lib/gcc/x86_64-linux-gnu/10/../../../x86_64-linux-gnu/libc.a(dl-runtime.o)
 .bss           0x00000000004af780        0x0 /usr/lib/gcc/x86_64-linux-gnu/10/../../../x86_64-linux-gnu/libc.a(dl-open.o)
 .bss           0x00000000004af780        0x4 /usr/lib/gcc/x86_64-linux-gnu/10/../../../x86_64-linux-gnu/libc.a(dl-close.o)
 .bss           0x00000000004af784        0x0 /usr/lib/gcc/x86_64-linux-gnu/10/../../../x86_64-linux-gnu/libc.a(dl-sort-maps.o)
 .bss           0x00000000004af784        0x0 /usr/lib/gcc/x86_64-linux-gnu/10/../../../x86_64-linux-gnu/libc.a(tlsdesc.o)
 .bss           0x00000000004af784        0x0 /usr/lib/gcc/x86_64-linux-gnu/10/../../../x86_64-linux-gnu/libc.a(dl-addr.o)
 .bss           0x00000000004af784        0x0 /usr/lib/gcc/x86_64-linux-gnu/10/../../../x86_64-linux-gnu/libc.a(dl-addr-obj.o)
 .bss           0x00000000004af784        0x0 /usr/lib/gcc/x86_64-linux-gnu/10/../../../x86_64-linux-gnu/libc.a(add_n.o)
 .bss           0x00000000004af784        0x0 /usr/lib/gcc/x86_64-linux-gnu/10/../../../x86_64-linux-gnu/libc.a(addmul_1.o)
 .bss           0x00000000004af784        0x0 /usr/lib/gcc/x86_64-linux-gnu/10/../../../x86_64-linux-gnu/libc.a(sdlopen.o)
 .bss           0x00000000004af784        0x0 /usr/lib/gcc/x86_64-linux-gnu/10/../../../x86_64-linux-gnu/libc.a(sdlclose.o)
 .bss           0x00000000004af784        0x0 /usr/lib/gcc/x86_64-linux-gnu/10/../../../x86_64-linux-gnu/libc.a(sdlsym.o)
 .bss           0x00000000004af784        0x0 /usr/lib/gcc/x86_64-linux-gnu/10/../../../x86_64-linux-gnu/libc.a(sdlvsym.o)
 .bss           0x00000000004af784        0x0 /usr/lib/gcc/x86_64-linux-gnu/10/../../../x86_64-linux-gnu/libc.a(setitimer.o)
 .bss           0x00000000004af784        0x0 /usr/lib/gcc/x86_64-linux-gnu/10/../../../x86_64-linux-gnu/libc.a(dl-deps.o)
 .bss           0x00000000004af784        0x0 /usr/lib/gcc/x86_64-linux-gnu/10/../../../x86_64-linux-gnu/libc.a(dl-init.o)
 .bss           0x00000000004af784        0x0 /usr/lib/gcc/x86_64-linux-gnu/10/../../../x86_64-linux-gnu/libc.a(dl-version.o)
 .bss           0x00000000004af784        0x0 /usr/lib/gcc/x86_64-linux-gnu/10/../../../x86_64-linux-gnu/libc.a(dl-sym.o)
 .bss           0x00000000004af784        0x0 /usr/lib/gcc/x86_64-linux-gnu/10/libgcc.a(unordtf2.o)
 .bss           0x00000000004af784        0x0 /usr/lib/gcc/x86_64-linux-gnu/10/libgcc.a(letf2.o)
 .bss           0x00000000004af784        0x0 /usr/lib/gcc/x86_64-linux-gnu/10/libgcc.a(sfp-exceptions.o)
 *fill*         0x00000000004af784        0xc 
 .bss           0x00000000004af790       0x22 /usr/lib/gcc/x86_64-linux-gnu/10/libgcc_eh.a(unwind-dw2.o)
 *fill*         0x00000000004af7b2        0xe 
 .bss           0x00000000004af7c0      0x1e0 /usr/lib/gcc/x86_64-linux-gnu/10/libgcc_eh.a(unwind-dw2-fde-dip.o)
 .bss           0x00000000004af9a0        0x0 /usr/lib/gcc/x86_64-linux-gnu/10/libgcc_eh.a(unwind-c.o)
 .bss           0x00000000004af9a0        0x0 /usr/lib/gcc/x86_64-linux-gnu/10/../../../x86_64-linux-gnu/libc.a(dl-iteratephdr.o)
 .bss           0x00000000004af9a0        0x0 /usr/lib/gcc/x86_64-linux-gnu/10/crtend.o
 .bss           0x00000000004af9a0        0x0 /usr/lib/gcc/x86_64-linux-gnu/10/../../../x86_64-linux-gnu/crtn.o
 *(COMMON)
                0x00000000004af9a0                . = ALIGN ((. != 0x0)?0x8:0x1)

__libc_freeres_ptrs
                0x00000000004af9a0       0x28
 __libc_freeres_ptrs
                0x00000000004af9a0       0x10 /usr/lib/gcc/x86_64-linux-gnu/10/../../../x86_64-linux-gnu/libc.a(localealias.o)
 __libc_freeres_ptrs
                0x00000000004af9b0        0x8 /usr/lib/gcc/x86_64-linux-gnu/10/../../../x86_64-linux-gnu/libc.a(reg-printf.o)
                0x00000000004af9b0                __printf_arginfo_table
 __libc_freeres_ptrs
                0x00000000004af9b8        0x8 /usr/lib/gcc/x86_64-linux-gnu/10/../../../x86_64-linux-gnu/libc.a(reg-type.o)
                0x00000000004af9b8                __printf_va_arg_table
 __libc_freeres_ptrs
                0x00000000004af9c0        0x8 /usr/lib/gcc/x86_64-linux-gnu/10/../../../x86_64-linux-gnu/libc.a(strerror.o)

.lbss
 *(.dynlbss)
 *(.lbss .lbss.* .gnu.linkonce.lb.*)
 *(LARGE_COMMON)
                0x00000000004af9c8                . = ALIGN (0x8)
                0x00000000004af9c8                . = SEGMENT_START ("ldata-segment", .)

.lrodata
 *(.lrodata .lrodata.* .gnu.linkonce.lr.*)

.ldata          0x00000000004b19c8        0x0
 *(.ldata .ldata.* .gnu.linkonce.l.*)
                0x00000000004b19c8                . = ALIGN ((. != 0x0)?0x8:0x1)
                0x00000000004b19c8                . = ALIGN (0x8)
                0x00000000004af9c8                _end = .
                [!provide]                        PROVIDE (end = .)
                0x00000000004b19c8                . = DATA_SEGMENT_END (.)

.stab
 *(.stab)

.stabstr
 *(.stabstr)

.stab.excl
 *(.stab.excl)

.stab.exclstr
 *(.stab.exclstr)

.stab.index
 *(.stab.index)

.stab.indexstr
 *(.stab.indexstr)

.comment        0x0000000000000000       0x27
 *(.comment)
 .comment       0x0000000000000000       0x27 /usr/lib/gcc/x86_64-linux-gnu/10/crtbeginT.o
                                         0x28 (size before relaxing)
 .comment       0x0000000000000027       0x28 ropex.o
 .comment       0x0000000000000027       0x28 /usr/lib/gcc/x86_64-linux-gnu/10/crtend.o

.gnu.build.attributes
 *(.gnu.build.attributes .gnu.build.attributes.*)

.debug
 *(.debug)

.line
 *(.line)

.debug_srcinfo
 *(.debug_srcinfo)

.debug_sfnames
 *(.debug_sfnames)

.debug_aranges  0x0000000000000000       0x30
 *(.debug_aranges)
 .debug_aranges
                0x0000000000000000       0x30 ropex.o

.debug_pubnames
 *(.debug_pubnames)

.debug_info     0x0000000000000000      0x476
 *(.debug_info .gnu.linkonce.wi.*)
 .debug_info    0x0000000000000000      0x476 ropex.o

.debug_abbrev   0x0000000000000000      0x177
 *(.debug_abbrev)
 .debug_abbrev  0x0000000000000000      0x177 ropex.o

.debug_line     0x0000000000000000      0x17a
 *(.debug_line .debug_line.* .debug_line_end)
 .debug_line    0x0000000000000000      0x17a ropex.o

.debug_frame    0x0000000000000000       0x90
 *(.debug_frame)
 .debug_frame   0x0000000000000000       0x90 ropex.o

.debug_str      0x0000000000000000      0x2ab
 *(.debug_str)
 .debug_str     0x0000000000000000      0x2ab ropex.o
                                        0x2ea (size before relaxing)

.debug_loc      0x0000000000000000      0x269
 *(.debug_loc)
 .debug_loc     0x0000000000000000      0x269 ropex.o

.debug_macinfo
 *(.debug_macinfo)

.debug_weaknames
 *(.debug_weaknames)

.debug_funcnames
 *(.debug_funcnames)

.debug_typenames
 *(.debug_typenames)

.debug_varnames
 *(.debug_varnames)

.debug_pubtypes
 *(.debug_pubtypes)

.debug_ranges
 *(.debug_ranges)

.debug_macro
 *(.debug_macro)

.debug_addr
 *(.debug_addr)

.gnu.attributes
 *(.gnu.attributes)

/DISCARD/
 *(.note.GNU-stack)
 *(.gnu_debuglink)
 *(.gnu.lto_*)
OUTPUT(ropex elf64-x86-64)
